ARM GAS  C:\Users\VR\AppData\Local\Temp\ccmmLOSs.s 			page 1


   1              		.cpu cortex-m4
   2              		.arch armv7e-m
   3              		.fpu fpv4-sp-d16
   4              		.eabi_attribute 27, 1
   5              		.eabi_attribute 28, 1
   6              		.eabi_attribute 20, 1
   7              		.eabi_attribute 21, 1
   8              		.eabi_attribute 23, 3
   9              		.eabi_attribute 24, 1
  10              		.eabi_attribute 25, 1
  11              		.eabi_attribute 26, 1
  12              		.eabi_attribute 30, 1
  13              		.eabi_attribute 34, 1
  14              		.eabi_attribute 18, 4
  15              		.file	"app_freertos.c"
  16              		.text
  17              	.Ltext0:
  18              		.cfi_sections	.debug_frame
  19              		.section	.text.diag_service_callback,"ax",%progbits
  20              		.align	1
  21              		.global	diag_service_callback
  22              		.syntax unified
  23              		.thumb
  24              		.thumb_func
  26              	diag_service_callback:
  27              	.LVL0:
  28              	.LFB153:
  29              		.file 1 "Core/Src/app_freertos.c"
   1:Core/Src/app_freertos.c **** /* USER CODE BEGIN Header */
   2:Core/Src/app_freertos.c **** /**
   3:Core/Src/app_freertos.c ****   ******************************************************************************
   4:Core/Src/app_freertos.c ****   * File Name          : app_freertos.c
   5:Core/Src/app_freertos.c ****   * Description        : Code for freertos applications
   6:Core/Src/app_freertos.c ****   ******************************************************************************
   7:Core/Src/app_freertos.c ****   * @attention
   8:Core/Src/app_freertos.c ****   *
   9:Core/Src/app_freertos.c ****   * Copyright (c) 2023 STMicroelectronics.
  10:Core/Src/app_freertos.c ****   * All rights reserved.
  11:Core/Src/app_freertos.c ****   *
  12:Core/Src/app_freertos.c ****   * This software is licensed under terms that can be found in the LICENSE file
  13:Core/Src/app_freertos.c ****   * in the root directory of this software component.
  14:Core/Src/app_freertos.c ****   * If no LICENSE file comes with this software, it is provided AS-IS.
  15:Core/Src/app_freertos.c ****   *
  16:Core/Src/app_freertos.c ****   ******************************************************************************
  17:Core/Src/app_freertos.c ****   */
  18:Core/Src/app_freertos.c **** /* USER CODE END Header */
  19:Core/Src/app_freertos.c **** 
  20:Core/Src/app_freertos.c **** /* Includes ------------------------------------------------------------------*/
  21:Core/Src/app_freertos.c **** #include "FreeRTOS.h"
  22:Core/Src/app_freertos.c **** #include "task.h"
  23:Core/Src/app_freertos.c **** #include "main.h"
  24:Core/Src/app_freertos.c **** #include "cmsis_os.h"
  25:Core/Src/app_freertos.c **** 
  26:Core/Src/app_freertos.c **** /* Private includes ----------------------------------------------------------*/
  27:Core/Src/app_freertos.c **** /* USER CODE BEGIN Includes */
  28:Core/Src/app_freertos.c **** #include <rcl/rcl.h>
  29:Core/Src/app_freertos.c **** #include <rcl/error_handling.h>
ARM GAS  C:\Users\VR\AppData\Local\Temp\ccmmLOSs.s 			page 2


  30:Core/Src/app_freertos.c **** #include <rclc/rclc.h>
  31:Core/Src/app_freertos.c **** #include <rclc/executor.h>
  32:Core/Src/app_freertos.c **** #include <uxr/client/transport.h>
  33:Core/Src/app_freertos.c **** #include <rmw_microxrcedds_c/config.h>
  34:Core/Src/app_freertos.c **** #include <rmw_microros/rmw_microros.h>
  35:Core/Src/app_freertos.c **** 
  36:Core/Src/app_freertos.c **** #include <rmw_microros/rmw_microros.h>
  37:Core/Src/app_freertos.c **** 
  38:Core/Src/app_freertos.c **** #include <type_utilities.h>
  39:Core/Src/app_freertos.c **** 
  40:Core/Src/app_freertos.c **** #include <config_service/srv/config_service.h>
  41:Core/Src/app_freertos.c **** #include <command_service/srv/command_service.h>
  42:Core/Src/app_freertos.c **** #include <diag_service/srv/diag_service.h>
  43:Core/Src/app_freertos.c **** #include <std_srvs/srv/empty.h>
  44:Core/Src/app_freertos.c **** 
  45:Core/Src/app_freertos.c **** 
  46:Core/Src/app_freertos.c **** #include <std_msgs/msg/int32.h>
  47:Core/Src/app_freertos.c **** #include <std_msgs/msg/u_int32.h>
  48:Core/Src/app_freertos.c **** #include <std_msgs/msg/int16_multi_array.h>
  49:Core/Src/app_freertos.c **** #include <std_msgs/msg/float32_multi_array.h>
  50:Core/Src/app_freertos.c **** #include <std_msgs/msg/string.h>
  51:Core/Src/app_freertos.c **** #include <sensor_msgs/msg/joint_state.h>
  52:Core/Src/app_freertos.c **** 
  53:Core/Src/app_freertos.c **** #include <tmc5160.h>
  54:Core/Src/app_freertos.c **** #include <as50xx.h>
  55:Core/Src/app_freertos.c **** #include <at24_eeprom.h>
  56:Core/Src/app_freertos.c **** 
  57:Core/Src/app_freertos.c **** #include <joint_config.h>
  58:Core/Src/app_freertos.c **** #include <state_of_joint.h>
  59:Core/Src/app_freertos.c **** #include <joint_diagnostics.h>
  60:Core/Src/app_freertos.c **** 
  61:Core/Src/app_freertos.c **** #include <math.h>
  62:Core/Src/app_freertos.c **** #include "utility.h"
  63:Core/Src/app_freertos.c **** /* USER CODE END Includes */
  64:Core/Src/app_freertos.c **** 
  65:Core/Src/app_freertos.c **** /* Private typedef -----------------------------------------------------------*/
  66:Core/Src/app_freertos.c **** typedef StaticSemaphore_t osStaticSemaphoreDef_t;
  67:Core/Src/app_freertos.c **** /* USER CODE BEGIN PTD */
  68:Core/Src/app_freertos.c **** 
  69:Core/Src/app_freertos.c **** /* USER CODE END PTD */
  70:Core/Src/app_freertos.c **** 
  71:Core/Src/app_freertos.c **** /* Private define ------------------------------------------------------------*/
  72:Core/Src/app_freertos.c **** /* USER CODE BEGIN PD */
  73:Core/Src/app_freertos.c **** 
  74:Core/Src/app_freertos.c **** /* USER CODE END PD */
  75:Core/Src/app_freertos.c **** 
  76:Core/Src/app_freertos.c **** /* Private macro -------------------------------------------------------------*/
  77:Core/Src/app_freertos.c **** /* USER CODE BEGIN PM */
  78:Core/Src/app_freertos.c **** 
  79:Core/Src/app_freertos.c **** /* USER CODE END PM */
  80:Core/Src/app_freertos.c **** 
  81:Core/Src/app_freertos.c **** /* Private variables ---------------------------------------------------------*/
  82:Core/Src/app_freertos.c **** /* USER CODE BEGIN Variables */
  83:Core/Src/app_freertos.c **** 
  84:Core/Src/app_freertos.c **** 
  85:Core/Src/app_freertos.c **** /* USER CODE END Variables */
  86:Core/Src/app_freertos.c **** /* Definitions for defaultTask */
ARM GAS  C:\Users\VR\AppData\Local\Temp\ccmmLOSs.s 			page 3


  87:Core/Src/app_freertos.c **** osThreadId_t defaultTaskHandle;
  88:Core/Src/app_freertos.c **** const osThreadAttr_t defaultTask_attributes = {
  89:Core/Src/app_freertos.c ****   .name = "defaultTask",
  90:Core/Src/app_freertos.c ****   .priority = (osPriority_t) osPriorityNormal,
  91:Core/Src/app_freertos.c ****   .stack_size = 3000 * 4
  92:Core/Src/app_freertos.c **** };
  93:Core/Src/app_freertos.c **** /* Definitions for quadEncoderRead */
  94:Core/Src/app_freertos.c **** osThreadId_t quadEncoderReadHandle;
  95:Core/Src/app_freertos.c **** const osThreadAttr_t quadEncoderRead_attributes = {
  96:Core/Src/app_freertos.c ****   .name = "quadEncoderRead",
  97:Core/Src/app_freertos.c ****   .priority = (osPriority_t) osPriorityLow,
  98:Core/Src/app_freertos.c ****   .stack_size = 64 * 4
  99:Core/Src/app_freertos.c **** };
 100:Core/Src/app_freertos.c **** /* Definitions for absEncoderRead */
 101:Core/Src/app_freertos.c **** osThreadId_t absEncoderReadHandle;
 102:Core/Src/app_freertos.c **** const osThreadAttr_t absEncoderRead_attributes = {
 103:Core/Src/app_freertos.c ****   .name = "absEncoderRead",
 104:Core/Src/app_freertos.c ****   .priority = (osPriority_t) osPriorityLow,
 105:Core/Src/app_freertos.c ****   .stack_size = 64 * 4
 106:Core/Src/app_freertos.c **** };
 107:Core/Src/app_freertos.c **** /* Definitions for configService */
 108:Core/Src/app_freertos.c **** osThreadId_t configServiceHandle;
 109:Core/Src/app_freertos.c **** const osThreadAttr_t configService_attributes = {
 110:Core/Src/app_freertos.c ****   .name = "configService",
 111:Core/Src/app_freertos.c ****   .priority = (osPriority_t) osPriorityNormal,
 112:Core/Src/app_freertos.c ****   .stack_size = 500 * 4
 113:Core/Src/app_freertos.c **** };
 114:Core/Src/app_freertos.c **** /* Definitions for commandService */
 115:Core/Src/app_freertos.c **** osThreadId_t commandServiceHandle;
 116:Core/Src/app_freertos.c **** const osThreadAttr_t commandService_attributes = {
 117:Core/Src/app_freertos.c ****   .name = "commandService",
 118:Core/Src/app_freertos.c ****   .priority = (osPriority_t) osPriorityNormal,
 119:Core/Src/app_freertos.c ****   .stack_size = 500 * 4
 120:Core/Src/app_freertos.c **** };
 121:Core/Src/app_freertos.c **** /* Definitions for jcPublisher */
 122:Core/Src/app_freertos.c **** osThreadId_t jcPublisherHandle;
 123:Core/Src/app_freertos.c **** const osThreadAttr_t jcPublisher_attributes = {
 124:Core/Src/app_freertos.c ****   .name = "jcPublisher",
 125:Core/Src/app_freertos.c ****   .priority = (osPriority_t) osPriorityLow,
 126:Core/Src/app_freertos.c ****   .stack_size = 500 * 4
 127:Core/Src/app_freertos.c **** };
 128:Core/Src/app_freertos.c **** /* Definitions for jcSubscriber */
 129:Core/Src/app_freertos.c **** osThreadId_t jcSubscriberHandle;
 130:Core/Src/app_freertos.c **** const osThreadAttr_t jcSubscriber_attributes = {
 131:Core/Src/app_freertos.c ****   .name = "jcSubscriber",
 132:Core/Src/app_freertos.c ****   .priority = (osPriority_t) osPriorityLow,
 133:Core/Src/app_freertos.c ****   .stack_size = 500 * 4
 134:Core/Src/app_freertos.c **** };
 135:Core/Src/app_freertos.c **** /* Definitions for motorRead */
 136:Core/Src/app_freertos.c **** osThreadId_t motorReadHandle;
 137:Core/Src/app_freertos.c **** const osThreadAttr_t motorRead_attributes = {
 138:Core/Src/app_freertos.c ****   .name = "motorRead",
 139:Core/Src/app_freertos.c ****   .priority = (osPriority_t) osPriorityLow,
 140:Core/Src/app_freertos.c ****   .stack_size = 64 * 4
 141:Core/Src/app_freertos.c **** };
 142:Core/Src/app_freertos.c **** /* Definitions for calibrateTask */
 143:Core/Src/app_freertos.c **** osThreadId_t calibrateTaskHandle;
ARM GAS  C:\Users\VR\AppData\Local\Temp\ccmmLOSs.s 			page 4


 144:Core/Src/app_freertos.c **** const osThreadAttr_t calibrateTask_attributes = {
 145:Core/Src/app_freertos.c ****   .name = "calibrateTask",
 146:Core/Src/app_freertos.c ****   .priority = (osPriority_t) osPriorityLow,
 147:Core/Src/app_freertos.c ****   .stack_size = 64 * 4
 148:Core/Src/app_freertos.c **** };
 149:Core/Src/app_freertos.c **** /* Definitions for PublisherSemaphore */
 150:Core/Src/app_freertos.c **** osSemaphoreId_t PublisherSemaphoreHandle;
 151:Core/Src/app_freertos.c **** osStaticSemaphoreDef_t PublisherSemaphoreControlBlock;
 152:Core/Src/app_freertos.c **** const osSemaphoreAttr_t PublisherSemaphore_attributes = {
 153:Core/Src/app_freertos.c ****   .name = "PublisherSemaphore",
 154:Core/Src/app_freertos.c ****   .cb_mem = &PublisherSemaphoreControlBlock,
 155:Core/Src/app_freertos.c ****   .cb_size = sizeof(PublisherSemaphoreControlBlock),
 156:Core/Src/app_freertos.c **** };
 157:Core/Src/app_freertos.c **** 
 158:Core/Src/app_freertos.c **** /* Private function prototypes -----------------------------------------------*/
 159:Core/Src/app_freertos.c **** /* USER CODE BEGIN FunctionPrototypes */
 160:Core/Src/app_freertos.c **** void config_init();
 161:Core/Src/app_freertos.c **** void jc_sub_cb(const void * msg_input);
 162:Core/Src/app_freertos.c **** float steps_to_rads(int32_t steps);
 163:Core/Src/app_freertos.c **** int32_t rad_to_steps(float rads);
 164:Core/Src/app_freertos.c **** 
 165:Core/Src/app_freertos.c **** void config_service_callback(const void * request_msg, void * response_msg);
 166:Core/Src/app_freertos.c **** void command_service_callback(const void * request_msg, void * response_msg);
 167:Core/Src/app_freertos.c **** void diag_service_callback(const void * request_msg, void * response_msg);
 168:Core/Src/app_freertos.c **** 
 169:Core/Src/app_freertos.c **** bool cubemx_transport_open(struct uxrCustomTransport * transport);
 170:Core/Src/app_freertos.c **** bool cubemx_transport_close(struct uxrCustomTransport * transport);
 171:Core/Src/app_freertos.c **** size_t cubemx_transport_write(struct uxrCustomTransport* transport, const uint8_t * buf, size_t len
 172:Core/Src/app_freertos.c **** size_t cubemx_transport_read(struct uxrCustomTransport* transport, uint8_t* buf, size_t len, int ti
 173:Core/Src/app_freertos.c **** 
 174:Core/Src/app_freertos.c **** void * microros_allocate(size_t size, void * state);
 175:Core/Src/app_freertos.c **** void microros_deallocate(void * pointer, void * state);
 176:Core/Src/app_freertos.c **** void * microros_reallocate(void * pointer, size_t size, void * state);
 177:Core/Src/app_freertos.c **** void * microros_zero_allocate(size_t number_of_elements, size_t size_of_element, void * state);
 178:Core/Src/app_freertos.c **** 
 179:Core/Src/app_freertos.c **** 
 180:Core/Src/app_freertos.c **** rcl_publisher_t jc_publisher;
 181:Core/Src/app_freertos.c **** rcl_subscription_t jc_subscriber;
 182:Core/Src/app_freertos.c **** rclc_executor_t jc_executor, config_executor, command_service_executor, diag_service_executor;
 183:Core/Src/app_freertos.c **** rclc_support_t support;
 184:Core/Src/app_freertos.c **** rcl_allocator_t allocator;
 185:Core/Src/app_freertos.c **** //rcl_allocator_t new_allocator; //with custom memory allocators
 186:Core/Src/app_freertos.c **** rcl_node_t node;
 187:Core/Src/app_freertos.c **** rcl_init_options_t init_options;
 188:Core/Src/app_freertos.c **** rcl_ret_t rc;
 189:Core/Src/app_freertos.c **** 
 190:Core/Src/app_freertos.c **** rcl_service_t config_service, command_service, diag_service;
 191:Core/Src/app_freertos.c **** config_service__srv__ConfigService_Response response_msg;
 192:Core/Src/app_freertos.c **** config_service__srv__ConfigService_Request request_msg;
 193:Core/Src/app_freertos.c **** 
 194:Core/Src/app_freertos.c **** command_service__srv__CommandService_Response command_service_response_msg;
 195:Core/Src/app_freertos.c **** command_service__srv__CommandService_Request command_service_request_msg;
 196:Core/Src/app_freertos.c **** 
 197:Core/Src/app_freertos.c **** diag_service__srv__DiagService_Response diag_service_response_msg;
 198:Core/Src/app_freertos.c **** diag_service__srv__DiagService_Request diag_service_request_msg;
 199:Core/Src/app_freertos.c **** 
 200:Core/Src/app_freertos.c **** std_msgs__msg__String msg;
ARM GAS  C:\Users\VR\AppData\Local\Temp\ccmmLOSs.s 			page 5


 201:Core/Src/app_freertos.c **** sensor_msgs__msg__JointState js_out, js_in;
 202:Core/Src/app_freertos.c **** 
 203:Core/Src/app_freertos.c **** std_msgs__msg__Int32 msg_out, msg_in;
 204:Core/Src/app_freertos.c **** 
 205:Core/Src/app_freertos.c **** 
 206:Core/Src/app_freertos.c **** float angle = 0; //Position in rad. read from TMC5160
 207:Core/Src/app_freertos.c **** float vel = 0; //Vel read from TMC5160
 208:Core/Src/app_freertos.c **** float effort = 0; //Effort for TMC5160
 209:Core/Src/app_freertos.c **** uint16_t AbsEncAngle = 0; //Abs encoder value
 210:Core/Src/app_freertos.c **** uint16_t QuadEncData = 0;//QUAD Encoder value
 211:Core/Src/app_freertos.c **** 
 212:Core/Src/app_freertos.c **** //test purpose
 213:Core/Src/app_freertos.c **** float dev_angle = 0;
 214:Core/Src/app_freertos.c **** int Calibrate = 0;
 215:Core/Src/app_freertos.c **** //test purpose
 216:Core/Src/app_freertos.c **** 
 217:Core/Src/app_freertos.c **** extern uint32_t read_fault; //soft WD
 218:Core/Src/app_freertos.c **** extern IWDG_HandleTypeDef hiwdg; //hard WD
 219:Core/Src/app_freertos.c **** 
 220:Core/Src/app_freertos.c **** state_of_joint state_o_j = {0,0,0,0,0,0,0,0};
 221:Core/Src/app_freertos.c **** joint_diagnostics j_diagnostics;
 222:Core/Src/app_freertos.c **** extern joint_config jc;
 223:Core/Src/app_freertos.c **** extern motor_config motor_cfg;
 224:Core/Src/app_freertos.c **** 
 225:Core/Src/app_freertos.c **** extern FDCAN_HandleTypeDef hfdcan1;
 226:Core/Src/app_freertos.c **** extern TIM_HandleTypeDef htim8;
 227:Core/Src/app_freertos.c **** 
 228:Core/Src/app_freertos.c **** /* USER CODE END FunctionPrototypes */
 229:Core/Src/app_freertos.c **** 
 230:Core/Src/app_freertos.c **** void StartDefaultTask(void *argument);
 231:Core/Src/app_freertos.c **** void StartTask02(void *argument);
 232:Core/Src/app_freertos.c **** void StartTask03(void *argument);
 233:Core/Src/app_freertos.c **** void StartTask04(void *argument);
 234:Core/Src/app_freertos.c **** void StartTask06(void *argument);
 235:Core/Src/app_freertos.c **** void StartTask09(void *argument);
 236:Core/Src/app_freertos.c **** void StartTask10(void *argument);
 237:Core/Src/app_freertos.c **** void StartTask05(void *argument);
 238:Core/Src/app_freertos.c **** void StartTask01(void *argument);
 239:Core/Src/app_freertos.c **** 
 240:Core/Src/app_freertos.c **** void MX_FREERTOS_Init(void); /* (MISRA C 2004 rule 8.1) */
 241:Core/Src/app_freertos.c **** 
 242:Core/Src/app_freertos.c **** /**
 243:Core/Src/app_freertos.c ****   * @brief  FreeRTOS initialization
 244:Core/Src/app_freertos.c ****   * @param  None
 245:Core/Src/app_freertos.c ****   * @retval None
 246:Core/Src/app_freertos.c ****   */
 247:Core/Src/app_freertos.c **** void MX_FREERTOS_Init(void) {
 248:Core/Src/app_freertos.c ****   /* USER CODE BEGIN Init */
 249:Core/Src/app_freertos.c **** 
 250:Core/Src/app_freertos.c ****   /* USER CODE END Init */
 251:Core/Src/app_freertos.c **** 
 252:Core/Src/app_freertos.c ****   /* USER CODE BEGIN RTOS_MUTEX */
 253:Core/Src/app_freertos.c ****   /* add mutexes, ... */
 254:Core/Src/app_freertos.c ****   /* USER CODE END RTOS_MUTEX */
 255:Core/Src/app_freertos.c **** 
 256:Core/Src/app_freertos.c ****   /* Create the semaphores(s) */
 257:Core/Src/app_freertos.c ****   /* creation of PublisherSemaphore */
ARM GAS  C:\Users\VR\AppData\Local\Temp\ccmmLOSs.s 			page 6


 258:Core/Src/app_freertos.c ****   PublisherSemaphoreHandle = osSemaphoreNew(1, 0, &PublisherSemaphore_attributes);
 259:Core/Src/app_freertos.c **** 
 260:Core/Src/app_freertos.c ****   /* USER CODE BEGIN RTOS_SEMAPHORES */
 261:Core/Src/app_freertos.c ****   /* add semaphores, ... */
 262:Core/Src/app_freertos.c ****   /* USER CODE END RTOS_SEMAPHORES */
 263:Core/Src/app_freertos.c **** 
 264:Core/Src/app_freertos.c ****   /* USER CODE BEGIN RTOS_TIMERS */
 265:Core/Src/app_freertos.c ****   /* start timers, add new ones, ... */
 266:Core/Src/app_freertos.c ****   /* USER CODE END RTOS_TIMERS */
 267:Core/Src/app_freertos.c **** 
 268:Core/Src/app_freertos.c ****   /* USER CODE BEGIN RTOS_QUEUES */
 269:Core/Src/app_freertos.c ****   /* add queues, ... */
 270:Core/Src/app_freertos.c ****   /* USER CODE END RTOS_QUEUES */
 271:Core/Src/app_freertos.c **** 
 272:Core/Src/app_freertos.c ****   /* Create the thread(s) */
 273:Core/Src/app_freertos.c ****   /* creation of defaultTask */
 274:Core/Src/app_freertos.c ****   defaultTaskHandle = osThreadNew(StartDefaultTask, NULL, &defaultTask_attributes);
 275:Core/Src/app_freertos.c **** 
 276:Core/Src/app_freertos.c ****   /* creation of quadEncoderRead */
 277:Core/Src/app_freertos.c ****   quadEncoderReadHandle = osThreadNew(StartTask02, NULL, &quadEncoderRead_attributes);
 278:Core/Src/app_freertos.c **** 
 279:Core/Src/app_freertos.c ****   /* creation of absEncoderRead */
 280:Core/Src/app_freertos.c ****   absEncoderReadHandle = osThreadNew(StartTask03, NULL, &absEncoderRead_attributes);
 281:Core/Src/app_freertos.c **** 
 282:Core/Src/app_freertos.c ****   /* creation of configService */
 283:Core/Src/app_freertos.c ****   configServiceHandle = osThreadNew(StartTask04, NULL, &configService_attributes);
 284:Core/Src/app_freertos.c **** 
 285:Core/Src/app_freertos.c ****   /* creation of commandService */
 286:Core/Src/app_freertos.c ****   commandServiceHandle = osThreadNew(StartTask06, NULL, &commandService_attributes);
 287:Core/Src/app_freertos.c **** 
 288:Core/Src/app_freertos.c ****   /* creation of jcPublisher */
 289:Core/Src/app_freertos.c ****   jcPublisherHandle = osThreadNew(StartTask09, NULL, &jcPublisher_attributes);
 290:Core/Src/app_freertos.c **** 
 291:Core/Src/app_freertos.c ****   /* creation of jcSubscriber */
 292:Core/Src/app_freertos.c ****   jcSubscriberHandle = osThreadNew(StartTask10, NULL, &jcSubscriber_attributes);
 293:Core/Src/app_freertos.c **** 
 294:Core/Src/app_freertos.c ****   /* creation of motorRead */
 295:Core/Src/app_freertos.c ****   motorReadHandle = osThreadNew(StartTask05, NULL, &motorRead_attributes);
 296:Core/Src/app_freertos.c **** 
 297:Core/Src/app_freertos.c ****   /* creation of calibrateTask */
 298:Core/Src/app_freertos.c ****   calibrateTaskHandle = osThreadNew(StartTask01, NULL, &calibrateTask_attributes);
 299:Core/Src/app_freertos.c **** 
 300:Core/Src/app_freertos.c ****   /* USER CODE BEGIN RTOS_THREADS */
 301:Core/Src/app_freertos.c ****   /* add threads, ... */
 302:Core/Src/app_freertos.c ****   /* USER CODE END RTOS_THREADS */
 303:Core/Src/app_freertos.c **** 
 304:Core/Src/app_freertos.c ****   /* USER CODE BEGIN RTOS_EVENTS */
 305:Core/Src/app_freertos.c ****   /* add events, ... */
 306:Core/Src/app_freertos.c ****   /* USER CODE END RTOS_EVENTS */
 307:Core/Src/app_freertos.c **** 
 308:Core/Src/app_freertos.c **** }
 309:Core/Src/app_freertos.c **** 
 310:Core/Src/app_freertos.c **** /* USER CODE BEGIN Header_StartDefaultTask */
 311:Core/Src/app_freertos.c **** /**
 312:Core/Src/app_freertos.c ****   * @brief  Function implementing the defaultTask thread.
 313:Core/Src/app_freertos.c ****   * @param  argument: Not used
 314:Core/Src/app_freertos.c ****   * @retval None
ARM GAS  C:\Users\VR\AppData\Local\Temp\ccmmLOSs.s 			page 7


 315:Core/Src/app_freertos.c ****   */
 316:Core/Src/app_freertos.c **** /* USER CODE END Header_StartDefaultTask */
 317:Core/Src/app_freertos.c **** void StartDefaultTask(void *argument)
 318:Core/Src/app_freertos.c **** {
 319:Core/Src/app_freertos.c ****   /* USER CODE BEGIN StartDefaultTask */
 320:Core/Src/app_freertos.c **** 
 321:Core/Src/app_freertos.c **** 		//Joint config
 322:Core/Src/app_freertos.c **** 		joint_config_freertos_init(&jc); //TODO see the function description
 323:Core/Src/app_freertos.c **** 		//Motor config
 324:Core/Src/app_freertos.c **** 		tmc5160_motor_config(jc.motor_type, jc.direction, jc.full_steps, jc.gear_ratio, jc.upper_limit_ef
 325:Core/Src/app_freertos.c **** 		//Disable config service at start
 326:Core/Src/app_freertos.c **** 		vTaskSuspend(configServiceHandle);
 327:Core/Src/app_freertos.c **** 		//Disable calibration at start
 328:Core/Src/app_freertos.c **** 		vTaskSuspend(calibrateTaskHandle);
 329:Core/Src/app_freertos.c **** 
 330:Core/Src/app_freertos.c **** 
 331:Core/Src/app_freertos.c **** 		//RCL init
 332:Core/Src/app_freertos.c **** 
 333:Core/Src/app_freertos.c **** 		rmw_uros_set_custom_transport(
 334:Core/Src/app_freertos.c **** 						true,
 335:Core/Src/app_freertos.c **** 						(void *) &hfdcan1,
 336:Core/Src/app_freertos.c **** 						cubemx_transport_open,
 337:Core/Src/app_freertos.c **** 						cubemx_transport_close,
 338:Core/Src/app_freertos.c **** 						cubemx_transport_write,
 339:Core/Src/app_freertos.c **** 						cubemx_transport_read);
 340:Core/Src/app_freertos.c **** 
 341:Core/Src/app_freertos.c **** 		rcl_allocator_t freeRTOS_allocator = rcutils_get_zero_initialized_allocator();
 342:Core/Src/app_freertos.c **** 		freeRTOS_allocator.allocate = microros_allocate;
 343:Core/Src/app_freertos.c **** 		freeRTOS_allocator.deallocate = microros_deallocate;
 344:Core/Src/app_freertos.c **** 		freeRTOS_allocator.reallocate = microros_reallocate;
 345:Core/Src/app_freertos.c **** 		freeRTOS_allocator.zero_allocate =  microros_zero_allocate;
 346:Core/Src/app_freertos.c **** 
 347:Core/Src/app_freertos.c **** 		rcutils_set_default_allocator(&freeRTOS_allocator);
 348:Core/Src/app_freertos.c **** 
 349:Core/Src/app_freertos.c **** 		allocator = rcl_get_default_allocator();
 350:Core/Src/app_freertos.c **** 		init_options = rcl_get_zero_initialized_init_options();
 351:Core/Src/app_freertos.c **** 
 352:Core/Src/app_freertos.c **** 		rcl_init_options_set_domain_id(&init_options, jc.domain_id); //setting the domain ID
 353:Core/Src/app_freertos.c **** 
 354:Core/Src/app_freertos.c **** 		rcl_init_options_init(&init_options, allocator);
 355:Core/Src/app_freertos.c **** 
 356:Core/Src/app_freertos.c **** 		rmw_init_options_t* rmw_options = rcl_init_options_get_rmw_init_options(&init_options);
 357:Core/Src/app_freertos.c **** 
 358:Core/Src/app_freertos.c **** 		uint32_t client_key;
 359:Core/Src/app_freertos.c **** 		client_key = 10 + jc.joint_number;
 360:Core/Src/app_freertos.c **** 		rmw_uros_options_set_client_key(client_key, rmw_options);
 361:Core/Src/app_freertos.c **** 
 362:Core/Src/app_freertos.c **** 		rclc_support_init_with_options(&support, 0, NULL, &init_options, &allocator);
 363:Core/Src/app_freertos.c **** 
 364:Core/Src/app_freertos.c **** 		//Control part
 365:Core/Src/app_freertos.c **** 		char node_name[13];
 366:Core/Src/app_freertos.c **** 		sprintf(node_name,"joint_node_%d", jc.joint_number);
 367:Core/Src/app_freertos.c **** 
 368:Core/Src/app_freertos.c **** 		rclc_node_init_default(&node, node_name, "", &support);
 369:Core/Src/app_freertos.c **** 
 370:Core/Src/app_freertos.c **** 		char joint_name[8];
 371:Core/Src/app_freertos.c **** 		sprintf(joint_name,"joint_%d", jc.joint_number);
ARM GAS  C:\Users\VR\AppData\Local\Temp\ccmmLOSs.s 			page 8


 372:Core/Src/app_freertos.c **** 
 373:Core/Src/app_freertos.c **** 		//JC publisher
 374:Core/Src/app_freertos.c **** 		//memory allocation for JS vars
 375:Core/Src/app_freertos.c **** 		js_out.position.size=1;
 376:Core/Src/app_freertos.c **** 		js_out.position.capacity=1;
 377:Core/Src/app_freertos.c **** 		js_out.position.data = malloc(js_out.position.capacity*sizeof(double));
 378:Core/Src/app_freertos.c **** 		js_out.position.data[0] = 0;
 379:Core/Src/app_freertos.c **** 		js_out.velocity.size=1;
 380:Core/Src/app_freertos.c **** 		js_out.velocity.capacity=1;
 381:Core/Src/app_freertos.c **** 		js_out.velocity.data = malloc(js_out.velocity.capacity*sizeof(double));
 382:Core/Src/app_freertos.c **** 		js_out.velocity.data[0] = 0;
 383:Core/Src/app_freertos.c **** 		js_out.effort.size=1;
 384:Core/Src/app_freertos.c **** 		js_out.effort.capacity=1;
 385:Core/Src/app_freertos.c **** 		js_out.effort.data = malloc(js_out.effort.capacity*sizeof(double));
 386:Core/Src/app_freertos.c **** 		js_out.effort.data[0] = 0;
 387:Core/Src/app_freertos.c **** 		js_out.name.capacity = 1;
 388:Core/Src/app_freertos.c **** 		js_out.name.size = 1;
 389:Core/Src/app_freertos.c **** 		js_out.name.data = (std_msgs__msg__String*) malloc(js_out.name.capacity*sizeof(std_msgs__msg__Str
 390:Core/Src/app_freertos.c **** 		js_out.name.data[0].data = joint_name;
 391:Core/Src/app_freertos.c **** 
 392:Core/Src/app_freertos.c **** 		char topic_pub_name[18];
 393:Core/Src/app_freertos.c **** 		sprintf(topic_pub_name,"joint_state_pub_%d", jc.joint_number);
 394:Core/Src/app_freertos.c **** 
 395:Core/Src/app_freertos.c **** 		rclc_publisher_init_default(
 396:Core/Src/app_freertos.c **** 			&jc_publisher,
 397:Core/Src/app_freertos.c **** 			&node,
 398:Core/Src/app_freertos.c **** 			ROSIDL_GET_MSG_TYPE_SUPPORT(sensor_msgs, msg, JointState),
 399:Core/Src/app_freertos.c **** 			topic_pub_name);
 400:Core/Src/app_freertos.c **** 
 401:Core/Src/app_freertos.c **** 		//JC control Subscriber
 402:Core/Src/app_freertos.c **** 		//memory allocation for JS vars
 403:Core/Src/app_freertos.c **** 		js_in.position.size=1;
 404:Core/Src/app_freertos.c **** 		js_in.position.capacity=1;
 405:Core/Src/app_freertos.c **** 		js_in.position.data = malloc(js_in.position.capacity*sizeof(double));
 406:Core/Src/app_freertos.c **** 		js_in.position.data[0] = 0;
 407:Core/Src/app_freertos.c **** 		js_in.velocity.size=1;
 408:Core/Src/app_freertos.c **** 		js_in.velocity.capacity=1;
 409:Core/Src/app_freertos.c **** 		js_in.velocity.data = malloc(js_in.velocity.capacity*sizeof(double));
 410:Core/Src/app_freertos.c **** 		js_in.velocity.data[0] = 0;
 411:Core/Src/app_freertos.c **** 		js_in.effort.size=1;
 412:Core/Src/app_freertos.c **** 		js_in.effort.capacity=1;
 413:Core/Src/app_freertos.c **** 		js_in.effort.data = malloc(js_in.effort.capacity*sizeof(double));
 414:Core/Src/app_freertos.c **** 		js_in.effort.data[0] = 0;
 415:Core/Src/app_freertos.c **** 		js_in.name.capacity = 1;
 416:Core/Src/app_freertos.c **** 		js_in.name.size = 1;
 417:Core/Src/app_freertos.c **** 		js_in.name.data = (std_msgs__msg__String*) malloc(js_in.name.capacity*sizeof(std_msgs__msg__Strin
 418:Core/Src/app_freertos.c **** 
 419:Core/Src/app_freertos.c **** 		char topic_sub_name[18];
 420:Core/Src/app_freertos.c **** 		sprintf(topic_sub_name,"joint_state_sub_%d", jc.joint_number);
 421:Core/Src/app_freertos.c **** 
 422:Core/Src/app_freertos.c **** 		rc = rclc_subscription_init_default(
 423:Core/Src/app_freertos.c **** 			&jc_subscriber, &node,
 424:Core/Src/app_freertos.c **** 			ROSIDL_GET_MSG_TYPE_SUPPORT(sensor_msgs, msg, JointState),
 425:Core/Src/app_freertos.c **** 			topic_sub_name);
 426:Core/Src/app_freertos.c **** 
 427:Core/Src/app_freertos.c **** 		jc_executor = rclc_executor_get_zero_initialized_executor();
 428:Core/Src/app_freertos.c **** 		rc = rclc_executor_init(&jc_executor, &support.context, 1, &allocator);
ARM GAS  C:\Users\VR\AppData\Local\Temp\ccmmLOSs.s 			page 9


 429:Core/Src/app_freertos.c **** 
 430:Core/Src/app_freertos.c **** 		rc = rclc_executor_add_subscription(
 431:Core/Src/app_freertos.c **** 			&jc_executor, &jc_subscriber, &js_in,
 432:Core/Src/app_freertos.c **** 			&jc_sub_cb, ON_NEW_DATA);
 433:Core/Src/app_freertos.c **** 
 434:Core/Src/app_freertos.c **** 		//Services
 435:Core/Src/app_freertos.c **** 		//Config Service
 436:Core/Src/app_freertos.c **** 		//for some reason it require its own executor
 437:Core/Src/app_freertos.c **** 		config_executor = rclc_executor_get_zero_initialized_executor();
 438:Core/Src/app_freertos.c **** 		rc = rclc_executor_init(&config_executor, &support.context, 1, &allocator);
 439:Core/Src/app_freertos.c **** 
 440:Core/Src/app_freertos.c **** 		char config_service_name[17];
 441:Core/Src/app_freertos.c **** 		sprintf(config_service_name,"/config_service_%d", jc.joint_number);
 442:Core/Src/app_freertos.c **** 		//msg init
 443:Core/Src/app_freertos.c **** 		const rosidl_message_type_support_t * config_support_service =
 444:Core/Src/app_freertos.c **** 		  ROSIDL_GET_SRV_TYPE_SUPPORT(config_service, srv, ConfigService);
 445:Core/Src/app_freertos.c **** 
 446:Core/Src/app_freertos.c **** 		//service init
 447:Core/Src/app_freertos.c **** 		rcl_ret_t rc = rclc_service_init_default(
 448:Core/Src/app_freertos.c **** 		  &config_service, &node,
 449:Core/Src/app_freertos.c **** 		  config_support_service, config_service_name);
 450:Core/Src/app_freertos.c **** 		rclc_executor_add_service(
 451:Core/Src/app_freertos.c **** 		  &config_executor, &config_service, &request_msg,
 452:Core/Src/app_freertos.c **** 		  &response_msg, config_service_callback);
 453:Core/Src/app_freertos.c **** 
 454:Core/Src/app_freertos.c **** 
 455:Core/Src/app_freertos.c **** 		//Command Service
 456:Core/Src/app_freertos.c **** 		//for some reason it require its own executor
 457:Core/Src/app_freertos.c **** 		command_service_executor = rclc_executor_get_zero_initialized_executor();
 458:Core/Src/app_freertos.c **** 		rclc_executor_init(&command_service_executor, &support.context, 1, &allocator);
 459:Core/Src/app_freertos.c **** 
 460:Core/Src/app_freertos.c **** 		char command_service_name[17];
 461:Core/Src/app_freertos.c **** 		sprintf(command_service_name,"/command_service_%d", jc.joint_number);
 462:Core/Src/app_freertos.c **** 		//msg init
 463:Core/Src/app_freertos.c **** 		const rosidl_message_type_support_t * command_service_support_service =
 464:Core/Src/app_freertos.c **** 		  ROSIDL_GET_SRV_TYPE_SUPPORT(command_service, srv, CommandService);
 465:Core/Src/app_freertos.c **** 		//service init
 466:Core/Src/app_freertos.c **** 		rclc_service_init_default(
 467:Core/Src/app_freertos.c **** 		  &command_service, &node,
 468:Core/Src/app_freertos.c **** 		  command_service_support_service, command_service_name);
 469:Core/Src/app_freertos.c **** 		rclc_executor_add_service(
 470:Core/Src/app_freertos.c **** 		  &command_service_executor, &command_service, &command_service_request_msg,
 471:Core/Src/app_freertos.c **** 		  &command_service_response_msg, command_service_callback);
 472:Core/Src/app_freertos.c **** 
 473:Core/Src/app_freertos.c **** 
 474:Core/Src/app_freertos.c **** 		//Diagnostics service
 475:Core/Src/app_freertos.c **** 		diag_service_executor = rclc_executor_get_zero_initialized_executor();
 476:Core/Src/app_freertos.c **** 		rclc_executor_init(&diag_service_executor, &support.context, 1, &allocator);
 477:Core/Src/app_freertos.c **** 
 478:Core/Src/app_freertos.c **** 		char diag_service_name[14];
 479:Core/Src/app_freertos.c **** 		sprintf(diag_service_name,"/diag_service_%d", jc.joint_number);
 480:Core/Src/app_freertos.c **** 		//msg init
 481:Core/Src/app_freertos.c **** 		const rosidl_message_type_support_t * diag_service_support_service =
 482:Core/Src/app_freertos.c **** 		  ROSIDL_GET_SRV_TYPE_SUPPORT(diag_service, srv, DiagService);
 483:Core/Src/app_freertos.c **** 		//service init
 484:Core/Src/app_freertos.c **** 		rclc_service_init_default(
 485:Core/Src/app_freertos.c **** 		  &diag_service, &node,
ARM GAS  C:\Users\VR\AppData\Local\Temp\ccmmLOSs.s 			page 10


 486:Core/Src/app_freertos.c **** 		  diag_service_support_service, diag_service_name);
 487:Core/Src/app_freertos.c **** 		rclc_executor_add_service(
 488:Core/Src/app_freertos.c **** 		  &diag_service_executor, &diag_service, &diag_service_request_msg,
 489:Core/Src/app_freertos.c **** 		  &diag_service_response_msg, diag_service_callback);
 490:Core/Src/app_freertos.c **** 
 491:Core/Src/app_freertos.c **** 
 492:Core/Src/app_freertos.c **** 		//ALERT regulator
 493:Core/Src/app_freertos.c **** 	for(;;)
 494:Core/Src/app_freertos.c **** 	{
 495:Core/Src/app_freertos.c **** 	if (read_fault < 5)
 496:Core/Src/app_freertos.c **** 	{
 497:Core/Src/app_freertos.c **** 	HAL_IWDG_Refresh(&hiwdg);
 498:Core/Src/app_freertos.c **** 	}
 499:Core/Src/app_freertos.c **** 
 500:Core/Src/app_freertos.c **** 	//some things to add
 501:Core/Src/app_freertos.c **** 
 502:Core/Src/app_freertos.c **** 	vTaskDelay(50);
 503:Core/Src/app_freertos.c **** 	}
 504:Core/Src/app_freertos.c **** 
 505:Core/Src/app_freertos.c ****   /* USER CODE END StartDefaultTask */
 506:Core/Src/app_freertos.c **** }
 507:Core/Src/app_freertos.c **** 
 508:Core/Src/app_freertos.c **** /* USER CODE BEGIN Header_StartTask02 */
 509:Core/Src/app_freertos.c **** /**
 510:Core/Src/app_freertos.c **** * @brief Function implementing the quadEncoderRead thread.
 511:Core/Src/app_freertos.c **** * @param argument: Not used
 512:Core/Src/app_freertos.c **** * @retval None
 513:Core/Src/app_freertos.c **** */
 514:Core/Src/app_freertos.c **** /* USER CODE END Header_StartTask02 */
 515:Core/Src/app_freertos.c **** void StartTask02(void *argument)
 516:Core/Src/app_freertos.c **** {
 517:Core/Src/app_freertos.c ****   /* USER CODE BEGIN StartTask02 */
 518:Core/Src/app_freertos.c **** 	//quadEncoderRead
 519:Core/Src/app_freertos.c ****   /* Infinite loop */
 520:Core/Src/app_freertos.c **** 	for(;;)
 521:Core/Src/app_freertos.c **** 	{
 522:Core/Src/app_freertos.c **** 	  QuadEncData = __HAL_TIM_GET_COUNTER(&htim8);
 523:Core/Src/app_freertos.c **** 	  osDelay(50);
 524:Core/Src/app_freertos.c **** 	}
 525:Core/Src/app_freertos.c ****   /* USER CODE END StartTask02 */
 526:Core/Src/app_freertos.c **** }
 527:Core/Src/app_freertos.c **** 
 528:Core/Src/app_freertos.c **** /* USER CODE BEGIN Header_StartTask03 */
 529:Core/Src/app_freertos.c **** /**
 530:Core/Src/app_freertos.c **** * @brief Function implementing the absEncoderRead thread.
 531:Core/Src/app_freertos.c **** * @param argument: Not used
 532:Core/Src/app_freertos.c **** * @retval None
 533:Core/Src/app_freertos.c **** */
 534:Core/Src/app_freertos.c **** /* USER CODE END Header_StartTask03 */
 535:Core/Src/app_freertos.c **** void StartTask03(void *argument)
 536:Core/Src/app_freertos.c **** {
 537:Core/Src/app_freertos.c ****   /* USER CODE BEGIN StartTask03 */
 538:Core/Src/app_freertos.c **** 	//absEncoderRead
 539:Core/Src/app_freertos.c ****   /* Infinite loop */
 540:Core/Src/app_freertos.c **** 	for(;;)
 541:Core/Src/app_freertos.c **** 	{
 542:Core/Src/app_freertos.c **** 	as50_readAngle(&AbsEncAngle, 100);
ARM GAS  C:\Users\VR\AppData\Local\Temp\ccmmLOSs.s 			page 11


 543:Core/Src/app_freertos.c **** 	osDelay(50);
 544:Core/Src/app_freertos.c **** 	}
 545:Core/Src/app_freertos.c ****   /* USER CODE END StartTask03 */
 546:Core/Src/app_freertos.c **** }
 547:Core/Src/app_freertos.c **** 
 548:Core/Src/app_freertos.c **** /* USER CODE BEGIN Header_StartTask04 */
 549:Core/Src/app_freertos.c **** /**
 550:Core/Src/app_freertos.c **** * @brief Function implementing the diagnosticPubli thread.
 551:Core/Src/app_freertos.c **** * @param argument: Not used
 552:Core/Src/app_freertos.c **** * @retval None
 553:Core/Src/app_freertos.c **** */
 554:Core/Src/app_freertos.c **** /* USER CODE END Header_StartTask04 */
 555:Core/Src/app_freertos.c **** void StartTask04(void *argument)
 556:Core/Src/app_freertos.c **** {
 557:Core/Src/app_freertos.c ****   /* USER CODE BEGIN StartTask04 */
 558:Core/Src/app_freertos.c **** 	//configService
 559:Core/Src/app_freertos.c **** 		  /* Infinite loop */
 560:Core/Src/app_freertos.c **** 	for(;;)
 561:Core/Src/app_freertos.c **** 	{
 562:Core/Src/app_freertos.c **** 	rclc_executor_spin_some(&config_executor, 1);
 563:Core/Src/app_freertos.c **** 	vTaskDelay(1000);
 564:Core/Src/app_freertos.c **** 	}
 565:Core/Src/app_freertos.c **** 
 566:Core/Src/app_freertos.c ****   /* USER CODE END StartTask04 */
 567:Core/Src/app_freertos.c **** }
 568:Core/Src/app_freertos.c **** 
 569:Core/Src/app_freertos.c **** /* USER CODE BEGIN Header_StartTask06 */
 570:Core/Src/app_freertos.c **** /**
 571:Core/Src/app_freertos.c **** * @brief Function implementing the configPub thread.
 572:Core/Src/app_freertos.c **** * @param argument: Not used
 573:Core/Src/app_freertos.c **** * @retval None
 574:Core/Src/app_freertos.c **** */
 575:Core/Src/app_freertos.c **** /* USER CODE END Header_StartTask06 */
 576:Core/Src/app_freertos.c **** void StartTask06(void *argument)
 577:Core/Src/app_freertos.c **** {
 578:Core/Src/app_freertos.c ****   /* USER CODE BEGIN StartTask06 */
 579:Core/Src/app_freertos.c **** 	//Command service
 580:Core/Src/app_freertos.c ****   /* Infinite loop */
 581:Core/Src/app_freertos.c ****   for(;;)
 582:Core/Src/app_freertos.c ****   {
 583:Core/Src/app_freertos.c **** 	rclc_executor_spin_some(&command_service_executor, 1);
 584:Core/Src/app_freertos.c ****     osDelay(1000);
 585:Core/Src/app_freertos.c ****   }
 586:Core/Src/app_freertos.c ****   /* USER CODE END StartTask06 */
 587:Core/Src/app_freertos.c **** }
 588:Core/Src/app_freertos.c **** 
 589:Core/Src/app_freertos.c **** /* USER CODE BEGIN Header_StartTask09 */
 590:Core/Src/app_freertos.c **** /**
 591:Core/Src/app_freertos.c **** * @brief Function implementing the jcPublisher thread.
 592:Core/Src/app_freertos.c **** * @param argument: Not used
 593:Core/Src/app_freertos.c **** * @retval None
 594:Core/Src/app_freertos.c **** */
 595:Core/Src/app_freertos.c **** /* USER CODE END Header_StartTask09 */
 596:Core/Src/app_freertos.c **** void StartTask09(void *argument)
 597:Core/Src/app_freertos.c **** {
 598:Core/Src/app_freertos.c ****   /* USER CODE BEGIN StartTask09 */
 599:Core/Src/app_freertos.c **** 	//jcPublisher
ARM GAS  C:\Users\VR\AppData\Local\Temp\ccmmLOSs.s 			page 12


 600:Core/Src/app_freertos.c ****   /* Infinite loop */
 601:Core/Src/app_freertos.c ****   for(;;)
 602:Core/Src/app_freertos.c ****   {
 603:Core/Src/app_freertos.c **** 	js_out.position.data[0] = angle; //kalman_angle;
 604:Core/Src/app_freertos.c **** 	js_out.velocity.data[0] = vel;   //QuadEncData; //vel; //velocity_to_go;
 605:Core/Src/app_freertos.c **** 	js_out.effort.data[0] = 0.0; //prev_effort;
 606:Core/Src/app_freertos.c **** 
 607:Core/Src/app_freertos.c **** 	//osSemaphoreAcquire(PublisherSemaphoreHandle, 0);
 608:Core/Src/app_freertos.c **** 	rcl_publish(&jc_publisher, &js_out, NULL);
 609:Core/Src/app_freertos.c **** 	//osSemaphoreRelease(PublisherSemaphoreHandle);
 610:Core/Src/app_freertos.c **** 
 611:Core/Src/app_freertos.c ****     osDelay(1000);
 612:Core/Src/app_freertos.c ****   }
 613:Core/Src/app_freertos.c ****   /* USER CODE END StartTask09 */
 614:Core/Src/app_freertos.c **** }
 615:Core/Src/app_freertos.c **** 
 616:Core/Src/app_freertos.c **** /* USER CODE BEGIN Header_StartTask10 */
 617:Core/Src/app_freertos.c **** /**
 618:Core/Src/app_freertos.c **** * @brief Function implementing the jcSubscriber thread.
 619:Core/Src/app_freertos.c **** * @param argument: Not used
 620:Core/Src/app_freertos.c **** * @retval None
 621:Core/Src/app_freertos.c **** */
 622:Core/Src/app_freertos.c **** /* USER CODE END Header_StartTask10 */
 623:Core/Src/app_freertos.c **** void StartTask10(void *argument)
 624:Core/Src/app_freertos.c **** {
 625:Core/Src/app_freertos.c ****   /* USER CODE BEGIN StartTask10 */
 626:Core/Src/app_freertos.c **** 	//jcSubscriber
 627:Core/Src/app_freertos.c ****   /* Infinite loop */
 628:Core/Src/app_freertos.c ****   for(;;)
 629:Core/Src/app_freertos.c ****   {
 630:Core/Src/app_freertos.c **** 	rclc_executor_spin_some(&jc_executor, 1);
 631:Core/Src/app_freertos.c ****     osDelay(1000);
 632:Core/Src/app_freertos.c ****   }
 633:Core/Src/app_freertos.c ****   /* USER CODE END StartTask10 */
 634:Core/Src/app_freertos.c **** }
 635:Core/Src/app_freertos.c **** 
 636:Core/Src/app_freertos.c **** /* USER CODE BEGIN Header_StartTask05 */
 637:Core/Src/app_freertos.c **** /**
 638:Core/Src/app_freertos.c **** * @brief Function implementing the motorRead thread.
 639:Core/Src/app_freertos.c **** * @param argument: Not used
 640:Core/Src/app_freertos.c **** * @retval None
 641:Core/Src/app_freertos.c **** */
 642:Core/Src/app_freertos.c **** /* USER CODE END Header_StartTask05 */
 643:Core/Src/app_freertos.c **** void StartTask05(void *argument)
 644:Core/Src/app_freertos.c **** {
 645:Core/Src/app_freertos.c ****   /* USER CODE BEGIN StartTask05 */
 646:Core/Src/app_freertos.c ****   //Motor driver read
 647:Core/Src/app_freertos.c ****   /* Infinite loop */
 648:Core/Src/app_freertos.c ****   for(;;)
 649:Core/Src/app_freertos.c ****   {
 650:Core/Src/app_freertos.c **** 	angle = steps_to_rads(tmc5160_position_read());
 651:Core/Src/app_freertos.c **** 	vel = steps_to_rads(tmc5160_velocity_read());
 652:Core/Src/app_freertos.c ****     osDelay(20);
 653:Core/Src/app_freertos.c ****   }
 654:Core/Src/app_freertos.c ****   /* USER CODE END StartTask05 */
 655:Core/Src/app_freertos.c **** }
 656:Core/Src/app_freertos.c **** 
ARM GAS  C:\Users\VR\AppData\Local\Temp\ccmmLOSs.s 			page 13


 657:Core/Src/app_freertos.c **** /* USER CODE BEGIN Header_StartTask01 */
 658:Core/Src/app_freertos.c **** /**
 659:Core/Src/app_freertos.c **** * @brief Function implementing the calibrateTask thread.
 660:Core/Src/app_freertos.c **** * @param argument: Not used
 661:Core/Src/app_freertos.c **** * @retval None
 662:Core/Src/app_freertos.c **** */
 663:Core/Src/app_freertos.c **** /* USER CODE END Header_StartTask01 */
 664:Core/Src/app_freertos.c **** void StartTask01(void *argument)
 665:Core/Src/app_freertos.c **** {
 666:Core/Src/app_freertos.c ****   /* USER CODE BEGIN StartTask01 */
 667:Core/Src/app_freertos.c **** 	int8_t Kp = 20;
 668:Core/Src/app_freertos.c **** 	uint32_t epsilon = 10;
 669:Core/Src/app_freertos.c **** 	uint32_t deviation = 0;
 670:Core/Src/app_freertos.c **** 	//Calibrate task
 671:Core/Src/app_freertos.c ****   /* Infinite loop */
 672:Core/Src/app_freertos.c ****   for(;;)
 673:Core/Src/app_freertos.c ****   {
 674:Core/Src/app_freertos.c **** 	if (state_o_j.CALIBRATE)
 675:Core/Src/app_freertos.c **** 	{
 676:Core/Src/app_freertos.c **** 	deviation = jc.zero_enc - AbsEncAngle;
 677:Core/Src/app_freertos.c **** 	tmc5160_move(deviation * Kp);
 678:Core/Src/app_freertos.c **** 	if (deviation<epsilon)
 679:Core/Src/app_freertos.c **** 	{
 680:Core/Src/app_freertos.c **** 		tmc5160_stop();
 681:Core/Src/app_freertos.c **** 		tmc5160_set_zero();
 682:Core/Src/app_freertos.c **** 		state_o_j.CALIBRATE = 0;
 683:Core/Src/app_freertos.c **** 	}
 684:Core/Src/app_freertos.c **** 	}
 685:Core/Src/app_freertos.c ****     osDelay(10);
 686:Core/Src/app_freertos.c ****   }
 687:Core/Src/app_freertos.c ****   /* USER CODE END StartTask01 */
 688:Core/Src/app_freertos.c **** }
 689:Core/Src/app_freertos.c **** 
 690:Core/Src/app_freertos.c **** /* Private application code --------------------------------------------------*/
 691:Core/Src/app_freertos.c **** /* USER CODE BEGIN Application */
 692:Core/Src/app_freertos.c **** void jc_sub_cb(const void * msg_input)
 693:Core/Src/app_freertos.c **** {
 694:Core/Src/app_freertos.c **** 	// Cast messages to expected types
 695:Core/Src/app_freertos.c **** 	const sensor_msgs__msg__JointState * js_in = (const sensor_msgs__msg__JointState *)msg_input;
 696:Core/Src/app_freertos.c **** 
 697:Core/Src/app_freertos.c **** 	float effort = clamp_value_noref(0, js_in->effort.data[0] , motor_cfg.max_effort_by_default);
 698:Core/Src/app_freertos.c **** 	float pos = clamp_value_noref(jc.lower_limit_ticks, rad_to_steps(js_in->position.data[0]), jc.uppe
 699:Core/Src/app_freertos.c **** 
 700:Core/Src/app_freertos.c **** 	tmc5160_effort(effort, jc.upper_limit_effort);
 701:Core/Src/app_freertos.c **** 	tmc5160_velocity(rad_to_steps(js_in->velocity.data[0]));
 702:Core/Src/app_freertos.c **** 	tmc5160_position(pos);
 703:Core/Src/app_freertos.c **** 	state_o_j.RUN = 1;
 704:Core/Src/app_freertos.c **** 	state_o_j.STOP = 0;
 705:Core/Src/app_freertos.c **** }
 706:Core/Src/app_freertos.c **** 
 707:Core/Src/app_freertos.c **** 
 708:Core/Src/app_freertos.c **** void config_service_callback(const void * request_msg, void * response_msg){
 709:Core/Src/app_freertos.c ****   // Cast messages to expected types
 710:Core/Src/app_freertos.c ****   config_service__srv__ConfigService_Request * req_in =
 711:Core/Src/app_freertos.c ****     (config_service__srv__ConfigService_Request *) request_msg;
 712:Core/Src/app_freertos.c ****   config_service__srv__ConfigService_Response * res_out =
 713:Core/Src/app_freertos.c ****     (config_service__srv__ConfigService_Response *) response_msg;
ARM GAS  C:\Users\VR\AppData\Local\Temp\ccmmLOSs.s 			page 14


 714:Core/Src/app_freertos.c **** 
 715:Core/Src/app_freertos.c ****   if (req_in->config_set)
 716:Core/Src/app_freertos.c ****   {
 717:Core/Src/app_freertos.c **** 	jc.upper_limit_enc = req_in->upper_limit_enc;
 718:Core/Src/app_freertos.c **** 	jc.lower_limit_enc = req_in->lower_limit_enc;
 719:Core/Src/app_freertos.c **** 	jc.upper_limit_ticks = req_in->upper_limit_ticks * req_in->gear_ratio;
 720:Core/Src/app_freertos.c **** 	jc.lower_limit_ticks = req_in->lower_limit_ticks * req_in->gear_ratio;
 721:Core/Src/app_freertos.c **** 	jc.domain_id = req_in->domain_id;
 722:Core/Src/app_freertos.c **** 	jc.zero_enc = req_in->zero_enc;
 723:Core/Src/app_freertos.c **** 	jc.full_steps = req_in->full_steps * req_in->gear_ratio;
 724:Core/Src/app_freertos.c **** 	jc.gear_ratio = req_in->gear_ratio;
 725:Core/Src/app_freertos.c **** 	jc.motor_type = req_in->motor_type;
 726:Core/Src/app_freertos.c **** 	jc.direction = req_in->direction;
 727:Core/Src/app_freertos.c **** 	jc.upper_limit_effort = req_in->upper_limit_effort;
 728:Core/Src/app_freertos.c **** 	jc.joint_number = req_in->joint_number;
 729:Core/Src/app_freertos.c **** 	jc.first_run = 7;
 730:Core/Src/app_freertos.c **** 
 731:Core/Src/app_freertos.c **** 	joint_config_write(&jc);
 732:Core/Src/app_freertos.c **** 
 733:Core/Src/app_freertos.c **** 	res_out->domain_id =jc.domain_id;
 734:Core/Src/app_freertos.c **** 	res_out->full_steps=jc.full_steps;
 735:Core/Src/app_freertos.c **** 	res_out->gear_ratio=jc.gear_ratio;
 736:Core/Src/app_freertos.c **** 	res_out->joint_number=jc.joint_number;
 737:Core/Src/app_freertos.c **** 	res_out->lower_limit_enc=jc.lower_limit_enc;
 738:Core/Src/app_freertos.c **** 	res_out->lower_limit_ticks=jc.lower_limit_ticks;
 739:Core/Src/app_freertos.c **** 	res_out->motor_type=jc.motor_type;
 740:Core/Src/app_freertos.c **** 	res_out->upper_limit_effort=jc.upper_limit_effort;
 741:Core/Src/app_freertos.c **** 	res_out->upper_limit_enc=jc.upper_limit_enc;
 742:Core/Src/app_freertos.c **** 	res_out->upper_limit_ticks=jc.upper_limit_ticks;
 743:Core/Src/app_freertos.c **** 	res_out->zero_enc=jc.zero_enc;
 744:Core/Src/app_freertos.c **** 	res_out->direction = jc.direction;
 745:Core/Src/app_freertos.c **** 
 746:Core/Src/app_freertos.c **** 	//NVIC_SystemReset();
 747:Core/Src/app_freertos.c ****   }
 748:Core/Src/app_freertos.c ****   else if (req_in->config_get)
 749:Core/Src/app_freertos.c ****   {
 750:Core/Src/app_freertos.c **** 	  res_out->domain_id =jc.domain_id;
 751:Core/Src/app_freertos.c **** 	  res_out->full_steps=jc.full_steps;
 752:Core/Src/app_freertos.c **** 	  res_out->gear_ratio=jc.gear_ratio;
 753:Core/Src/app_freertos.c **** 	  res_out->joint_number=jc.joint_number;
 754:Core/Src/app_freertos.c **** 	  res_out->lower_limit_enc=jc.lower_limit_enc;
 755:Core/Src/app_freertos.c **** 	  res_out->lower_limit_ticks=jc.lower_limit_ticks;
 756:Core/Src/app_freertos.c **** 	  res_out->motor_type=jc.motor_type;
 757:Core/Src/app_freertos.c **** 	  res_out->upper_limit_effort=jc.upper_limit_effort;
 758:Core/Src/app_freertos.c **** 	  res_out->upper_limit_enc=jc.upper_limit_enc;
 759:Core/Src/app_freertos.c **** 	  res_out->upper_limit_ticks=jc.upper_limit_ticks;
 760:Core/Src/app_freertos.c **** 	  res_out->zero_enc=jc.zero_enc;
 761:Core/Src/app_freertos.c **** 	  res_out->direction = jc.direction;
 762:Core/Src/app_freertos.c ****   }
 763:Core/Src/app_freertos.c **** }
 764:Core/Src/app_freertos.c **** 
 765:Core/Src/app_freertos.c **** void command_service_callback(const void * request_msg, void * response_msg)
 766:Core/Src/app_freertos.c **** {
 767:Core/Src/app_freertos.c ****   // Cast messages to expected type
 768:Core/Src/app_freertos.c **** 	command_service__srv__CommandService_Request * req_in =
 769:Core/Src/app_freertos.c **** 	(command_service__srv__CommandService_Request *) request_msg;
 770:Core/Src/app_freertos.c **** 	command_service__srv__CommandService_Response * res_out =
ARM GAS  C:\Users\VR\AppData\Local\Temp\ccmmLOSs.s 			page 15


 771:Core/Src/app_freertos.c **** 	(command_service__srv__CommandService_Response *) response_msg;
 772:Core/Src/app_freertos.c **** 
 773:Core/Src/app_freertos.c **** 
 774:Core/Src/app_freertos.c **** 	//TODO STATE MACHINE LOGIC SHOULD BE ADDED TO AVIOD INTERFERE
 775:Core/Src/app_freertos.c **** 
 776:Core/Src/app_freertos.c **** 	if (req_in->enable_config == 0)
 777:Core/Src/app_freertos.c **** 	{
 778:Core/Src/app_freertos.c **** 		vTaskSuspend(configServiceHandle);
 779:Core/Src/app_freertos.c **** 		//vTaskResume(jcPublisherHandle); //TODO
 780:Core/Src/app_freertos.c **** 		vTaskResume(jcSubscriberHandle);
 781:Core/Src/app_freertos.c **** 	}
 782:Core/Src/app_freertos.c **** 	else if (req_in->enable_config)
 783:Core/Src/app_freertos.c **** 	{
 784:Core/Src/app_freertos.c **** 		HAL_GPIO_WritePin(GPIOD, GPIO_PIN_2, 1);
 785:Core/Src/app_freertos.c **** 		vTaskResume(configServiceHandle);
 786:Core/Src/app_freertos.c **** 		//vTaskSuspend(jcPublisherHandle); //TODO to check why this is hanging MCU
 787:Core/Src/app_freertos.c **** 		vTaskSuspend(jcSubscriberHandle);
 788:Core/Src/app_freertos.c **** 	}
 789:Core/Src/app_freertos.c **** 		if (req_in->set_zero)
 790:Core/Src/app_freertos.c **** 		{
 791:Core/Src/app_freertos.c **** 			tmc5160_set_zero();
 792:Core/Src/app_freertos.c **** 		}
 793:Core/Src/app_freertos.c **** 		if (req_in->arm)
 794:Core/Src/app_freertos.c **** 		{
 795:Core/Src/app_freertos.c **** 			tmc5160_arm();
 796:Core/Src/app_freertos.c **** 		}
 797:Core/Src/app_freertos.c **** 		if (req_in->disarm)
 798:Core/Src/app_freertos.c **** 		{
 799:Core/Src/app_freertos.c **** 			tmc5160_disarm();
 800:Core/Src/app_freertos.c **** 		}
 801:Core/Src/app_freertos.c **** 		if (req_in->calibrate)
 802:Core/Src/app_freertos.c **** 		{
 803:Core/Src/app_freertos.c **** 			state_o_j.CALIBRATE = 1;
 804:Core/Src/app_freertos.c **** 			vTaskResume(calibrateTaskHandle);
 805:Core/Src/app_freertos.c **** 		}
 806:Core/Src/app_freertos.c **** 		else if(!req_in->calibrate)
 807:Core/Src/app_freertos.c **** 		{
 808:Core/Src/app_freertos.c **** 			state_o_j.CALIBRATE = 0;
 809:Core/Src/app_freertos.c **** 			vTaskSuspend(calibrateTaskHandle);
 810:Core/Src/app_freertos.c **** 		}
 811:Core/Src/app_freertos.c **** 		if (req_in->get_position)
 812:Core/Src/app_freertos.c **** 		{
 813:Core/Src/app_freertos.c **** 			res_out->angle = AbsEncAngle;
 814:Core/Src/app_freertos.c **** 			res_out->position_in_ticks = tmc5160_position_read();
 815:Core/Src/app_freertos.c **** 		}
 816:Core/Src/app_freertos.c **** 		if (req_in->stop)
 817:Core/Src/app_freertos.c **** 		{
 818:Core/Src/app_freertos.c **** 			tmc5160_stop();
 819:Core/Src/app_freertos.c **** 		}
 820:Core/Src/app_freertos.c **** 		if(req_in->position)
 821:Core/Src/app_freertos.c **** 		{
 822:Core/Src/app_freertos.c **** 			tmc5160_set_default_vel();
 823:Core/Src/app_freertos.c **** 			tmc5160_position(req_in->position);
 824:Core/Src/app_freertos.c **** 			res_out->success=1;
 825:Core/Src/app_freertos.c **** 			res_out->position_in_ticks = req_in->position;
 826:Core/Src/app_freertos.c **** 		}
 827:Core/Src/app_freertos.c **** 		if(req_in->set_lower_limit)
ARM GAS  C:\Users\VR\AppData\Local\Temp\ccmmLOSs.s 			page 16


 828:Core/Src/app_freertos.c **** 		{
 829:Core/Src/app_freertos.c **** 			jc.lower_limit_ticks = tmc5160_position_read();
 830:Core/Src/app_freertos.c **** 			joint_config_write(&jc);
 831:Core/Src/app_freertos.c **** 		}
 832:Core/Src/app_freertos.c **** 		if(req_in->set_upper_limit)
 833:Core/Src/app_freertos.c **** 		{
 834:Core/Src/app_freertos.c **** 			jc.upper_limit_ticks = tmc5160_position_read();
 835:Core/Src/app_freertos.c **** 			joint_config_write(&jc);
 836:Core/Src/app_freertos.c **** 		}
 837:Core/Src/app_freertos.c **** }
 838:Core/Src/app_freertos.c **** 
 839:Core/Src/app_freertos.c **** void diag_service_callback(const void * request_msg, void * response_msg)
 840:Core/Src/app_freertos.c **** {
  30              		.loc 1 840 1 view -0
  31              		.cfi_startproc
  32              		@ args = 0, pretend = 0, frame = 0
  33              		@ frame_needed = 0, uses_anonymous_args = 0
  34              		@ link register save eliminated.
 841:Core/Src/app_freertos.c ****   // Cast messages to expected type
 842:Core/Src/app_freertos.c **** 	diag_service__srv__DiagService_Request * req_in =
  35              		.loc 1 842 2 view .LVU1
 843:Core/Src/app_freertos.c **** 	(diag_service__srv__DiagService_Request *) request_msg;
 844:Core/Src/app_freertos.c **** 	diag_service__srv__DiagService_Response * res_out =
  36              		.loc 1 844 2 view .LVU2
 845:Core/Src/app_freertos.c **** 	(diag_service__srv__DiagService_Response *) response_msg;
 846:Core/Src/app_freertos.c **** }
  37              		.loc 1 846 1 is_stmt 0 view .LVU3
  38 0000 7047     		bx	lr
  39              		.cfi_endproc
  40              	.LFE153:
  42              		.section	.rodata.StartDefaultTask.str1.4,"aMS",%progbits,1
  43              		.align	2
  44              	.LC0:
  45 0000 6A6F696E 		.ascii	"joint_node_%d\000"
  45      745F6E6F 
  45      64655F25 
  45      6400
  46 000e 0000     		.align	2
  47              	.LC1:
  48 0010 00       		.ascii	"\000"
  49 0011 000000   		.align	2
  50              	.LC2:
  51 0014 6A6F696E 		.ascii	"joint_%d\000"
  51      745F2564 
  51      00
  52 001d 000000   		.align	2
  53              	.LC3:
  54 0020 6A6F696E 		.ascii	"joint_state_pub_%d\000"
  54      745F7374 
  54      6174655F 
  54      7075625F 
  54      256400
  55 0033 00       		.align	2
  56              	.LC4:
  57 0034 6A6F696E 		.ascii	"joint_state_sub_%d\000"
  57      745F7374 
  57      6174655F 
ARM GAS  C:\Users\VR\AppData\Local\Temp\ccmmLOSs.s 			page 17


  57      7375625F 
  57      256400
  58 0047 00       		.align	2
  59              	.LC5:
  60 0048 2F636F6E 		.ascii	"/config_service_%d\000"
  60      6669675F 
  60      73657276 
  60      6963655F 
  60      256400
  61 005b 00       		.align	2
  62              	.LC6:
  63 005c 2F636F6D 		.ascii	"/command_service_%d\000"
  63      6D616E64 
  63      5F736572 
  63      76696365 
  63      5F256400 
  64              		.align	2
  65              	.LC7:
  66 0070 2F646961 		.ascii	"/diag_service_%d\000"
  66      675F7365 
  66      72766963 
  66      655F2564 
  66      00
  67              		.section	.text.StartDefaultTask,"ax",%progbits
  68              		.align	1
  69              		.global	StartDefaultTask
  70              		.syntax unified
  71              		.thumb
  72              		.thumb_func
  74              	StartDefaultTask:
  75              	.LVL1:
  76              	.LFB141:
 318:Core/Src/app_freertos.c ****   /* USER CODE BEGIN StartDefaultTask */
  77              		.loc 1 318 1 is_stmt 1 view -0
  78              		.cfi_startproc
  79              		@ args = 0, pretend = 0, frame = 304
  80              		@ frame_needed = 0, uses_anonymous_args = 0
 318:Core/Src/app_freertos.c ****   /* USER CODE BEGIN StartDefaultTask */
  81              		.loc 1 318 1 is_stmt 0 view .LVU5
  82 0000 2DE9F04F 		push	{r4, r5, r6, r7, r8, r9, r10, fp, lr}
  83              	.LCFI0:
  84              		.cfi_def_cfa_offset 36
  85              		.cfi_offset 4, -36
  86              		.cfi_offset 5, -32
  87              		.cfi_offset 6, -28
  88              		.cfi_offset 7, -24
  89              		.cfi_offset 8, -20
  90              		.cfi_offset 9, -16
  91              		.cfi_offset 10, -12
  92              		.cfi_offset 11, -8
  93              		.cfi_offset 14, -4
  94 0004 2DED028B 		vpush.64	{d8}
  95              	.LCFI1:
  96              		.cfi_def_cfa_offset 44
  97              		.cfi_offset 80, -44
  98              		.cfi_offset 81, -40
  99 0008 CFB0     		sub	sp, sp, #316
ARM GAS  C:\Users\VR\AppData\Local\Temp\ccmmLOSs.s 			page 18


 100              	.LCFI2:
 101              		.cfi_def_cfa_offset 360
 322:Core/Src/app_freertos.c **** 		//Motor config
 102              		.loc 1 322 3 is_stmt 1 view .LVU6
 103 000a BD4D     		ldr	r5, .L7+8
 104 000c 2846     		mov	r0, r5
 105              	.LVL2:
 322:Core/Src/app_freertos.c **** 		//Motor config
 106              		.loc 1 322 3 is_stmt 0 view .LVU7
 107 000e FFF7FEFF 		bl	joint_config_freertos_init
 108              	.LVL3:
 324:Core/Src/app_freertos.c **** 		//Disable config service at start
 109              		.loc 1 324 3 is_stmt 1 view .LVU8
 110 0012 BC4B     		ldr	r3, .L7+12
 111 0014 D5ED090A 		vldr.32	s1, [r5, #36]
 112 0018 95ED030A 		vldr.32	s0, [r5, #12]
 113 001c AA68     		ldr	r2, [r5, #8]
 114 001e 95F90410 		ldrsb	r1, [r5, #4]
 115 0022 95F90300 		ldrsb	r0, [r5, #3]
 116 0026 FFF7FEFF 		bl	tmc5160_motor_config
 117              	.LVL4:
 326:Core/Src/app_freertos.c **** 		//Disable calibration at start
 118              		.loc 1 326 3 view .LVU9
 119 002a B74B     		ldr	r3, .L7+16
 120 002c 1868     		ldr	r0, [r3]
 121 002e FFF7FEFF 		bl	vTaskSuspend
 122              	.LVL5:
 328:Core/Src/app_freertos.c **** 
 123              		.loc 1 328 3 view .LVU10
 124 0032 B64B     		ldr	r3, .L7+20
 125 0034 1868     		ldr	r0, [r3]
 126 0036 FFF7FEFF 		bl	vTaskSuspend
 127              	.LVL6:
 333:Core/Src/app_freertos.c **** 						true,
 128              		.loc 1 333 3 view .LVU11
 129 003a B54B     		ldr	r3, .L7+24
 130 003c 0193     		str	r3, [sp, #4]
 131 003e B54B     		ldr	r3, .L7+28
 132 0040 0093     		str	r3, [sp]
 133 0042 B54B     		ldr	r3, .L7+32
 134 0044 B54A     		ldr	r2, .L7+36
 135 0046 B649     		ldr	r1, .L7+40
 136 0048 0120     		movs	r0, #1
 137 004a FFF7FEFF 		bl	rmw_uros_set_custom_transport
 138              	.LVL7:
 341:Core/Src/app_freertos.c **** 		freeRTOS_allocator.allocate = microros_allocate;
 139              		.loc 1 341 3 view .LVU12
 341:Core/Src/app_freertos.c **** 		freeRTOS_allocator.allocate = microros_allocate;
 140              		.loc 1 341 40 is_stmt 0 view .LVU13
 141 004e 49A8     		add	r0, sp, #292
 142 0050 FFF7FEFF 		bl	rcutils_get_zero_initialized_allocator
 143              	.LVL8:
 342:Core/Src/app_freertos.c **** 		freeRTOS_allocator.deallocate = microros_deallocate;
 144              		.loc 1 342 3 is_stmt 1 view .LVU14
 342:Core/Src/app_freertos.c **** 		freeRTOS_allocator.deallocate = microros_deallocate;
 145              		.loc 1 342 31 is_stmt 0 view .LVU15
 146 0054 B34B     		ldr	r3, .L7+44
ARM GAS  C:\Users\VR\AppData\Local\Temp\ccmmLOSs.s 			page 19


 147 0056 4993     		str	r3, [sp, #292]
 343:Core/Src/app_freertos.c **** 		freeRTOS_allocator.reallocate = microros_reallocate;
 148              		.loc 1 343 3 is_stmt 1 view .LVU16
 343:Core/Src/app_freertos.c **** 		freeRTOS_allocator.reallocate = microros_reallocate;
 149              		.loc 1 343 33 is_stmt 0 view .LVU17
 150 0058 B34B     		ldr	r3, .L7+48
 151 005a 4A93     		str	r3, [sp, #296]
 344:Core/Src/app_freertos.c **** 		freeRTOS_allocator.zero_allocate =  microros_zero_allocate;
 152              		.loc 1 344 3 is_stmt 1 view .LVU18
 344:Core/Src/app_freertos.c **** 		freeRTOS_allocator.zero_allocate =  microros_zero_allocate;
 153              		.loc 1 344 33 is_stmt 0 view .LVU19
 154 005c B34B     		ldr	r3, .L7+52
 155 005e 4B93     		str	r3, [sp, #300]
 345:Core/Src/app_freertos.c **** 
 156              		.loc 1 345 3 is_stmt 1 view .LVU20
 345:Core/Src/app_freertos.c **** 
 157              		.loc 1 345 36 is_stmt 0 view .LVU21
 158 0060 B34B     		ldr	r3, .L7+56
 159 0062 4C93     		str	r3, [sp, #304]
 347:Core/Src/app_freertos.c **** 
 160              		.loc 1 347 3 is_stmt 1 view .LVU22
 161 0064 49A8     		add	r0, sp, #292
 162 0066 FFF7FEFF 		bl	rcutils_set_default_allocator
 163              	.LVL9:
 349:Core/Src/app_freertos.c **** 		init_options = rcl_get_zero_initialized_init_options();
 164              		.loc 1 349 3 view .LVU23
 349:Core/Src/app_freertos.c **** 		init_options = rcl_get_zero_initialized_init_options();
 165              		.loc 1 349 15 is_stmt 0 view .LVU24
 166 006a B24F     		ldr	r7, .L7+60
 167 006c 24A8     		add	r0, sp, #144
 168 006e FFF7FEFF 		bl	rcutils_get_default_allocator
 169              	.LVL10:
 170 0072 3E46     		mov	r6, r7
 171 0074 24AC     		add	r4, sp, #144
 172 0076 0FCC     		ldmia	r4!, {r0, r1, r2, r3}
 173 0078 0FC6     		stmia	r6!, {r0, r1, r2, r3}
 174 007a 2368     		ldr	r3, [r4]
 175 007c 3360     		str	r3, [r6]
 350:Core/Src/app_freertos.c **** 
 176              		.loc 1 350 3 is_stmt 1 view .LVU25
 350:Core/Src/app_freertos.c **** 
 177              		.loc 1 350 18 is_stmt 0 view .LVU26
 178 007e FFF7FEFF 		bl	rcl_get_zero_initialized_init_options
 179              	.LVL11:
 180 0082 AD4C     		ldr	r4, .L7+64
 181 0084 2060     		str	r0, [r4]
 352:Core/Src/app_freertos.c **** 
 182              		.loc 1 352 3 is_stmt 1 view .LVU27
 183 0086 95F90110 		ldrsb	r1, [r5, #1]
 184 008a 2046     		mov	r0, r4
 185 008c FFF7FEFF 		bl	rcl_init_options_set_domain_id
 186              	.LVL12:
 354:Core/Src/app_freertos.c **** 
 187              		.loc 1 354 3 view .LVU28
 188 0090 07F10C03 		add	r3, r7, #12
 189 0094 93E80300 		ldm	r3, {r0, r1}
 190 0098 8DE80300 		stm	sp, {r0, r1}
ARM GAS  C:\Users\VR\AppData\Local\Temp\ccmmLOSs.s 			page 20


 191 009c 97E80E00 		ldm	r7, {r1, r2, r3}
 192 00a0 2046     		mov	r0, r4
 193 00a2 FFF7FEFF 		bl	rcl_init_options_init
 194              	.LVL13:
 356:Core/Src/app_freertos.c **** 
 195              		.loc 1 356 3 view .LVU29
 356:Core/Src/app_freertos.c **** 
 196              		.loc 1 356 37 is_stmt 0 view .LVU30
 197 00a6 2046     		mov	r0, r4
 198 00a8 FFF7FEFF 		bl	rcl_init_options_get_rmw_init_options
 199              	.LVL14:
 200 00ac 0146     		mov	r1, r0
 201              	.LVL15:
 358:Core/Src/app_freertos.c **** 		client_key = 10 + jc.joint_number;
 202              		.loc 1 358 3 is_stmt 1 view .LVU31
 359:Core/Src/app_freertos.c **** 		rmw_uros_options_set_client_key(client_key, rmw_options);
 203              		.loc 1 359 3 view .LVU32
 359:Core/Src/app_freertos.c **** 		rmw_uros_options_set_client_key(client_key, rmw_options);
 204              		.loc 1 359 23 is_stmt 0 view .LVU33
 205 00ae 95F90200 		ldrsb	r0, [r5, #2]
 206              	.LVL16:
 360:Core/Src/app_freertos.c **** 
 207              		.loc 1 360 3 is_stmt 1 view .LVU34
 208 00b2 0A30     		adds	r0, r0, #10
 209              	.LVL17:
 360:Core/Src/app_freertos.c **** 
 210              		.loc 1 360 3 is_stmt 0 view .LVU35
 211 00b4 FFF7FEFF 		bl	rmw_uros_options_set_client_key
 212              	.LVL18:
 362:Core/Src/app_freertos.c **** 
 213              		.loc 1 362 3 is_stmt 1 view .LVU36
 214 00b8 DFF8F492 		ldr	r9, .L7+184
 215 00bc 0097     		str	r7, [sp]
 216 00be 2346     		mov	r3, r4
 217 00c0 0022     		movs	r2, #0
 218 00c2 1146     		mov	r1, r2
 219 00c4 4846     		mov	r0, r9
 220 00c6 FFF7FEFF 		bl	rclc_support_init_with_options
 221              	.LVL19:
 365:Core/Src/app_freertos.c **** 		sprintf(node_name,"joint_node_%d", jc.joint_number);
 222              		.loc 1 365 3 view .LVU37
 366:Core/Src/app_freertos.c **** 
 223              		.loc 1 366 3 view .LVU38
 224 00ca 95F90220 		ldrsb	r2, [r5, #2]
 225 00ce 9B49     		ldr	r1, .L7+68
 226 00d0 45A8     		add	r0, sp, #276
 227 00d2 FFF7FEFF 		bl	sprintf
 228              	.LVL20:
 368:Core/Src/app_freertos.c **** 
 229              		.loc 1 368 3 view .LVU39
 230 00d6 DFF8DC82 		ldr	r8, .L7+188
 231 00da 4B46     		mov	r3, r9
 232 00dc 984A     		ldr	r2, .L7+72
 233 00de 45A9     		add	r1, sp, #276
 234 00e0 4046     		mov	r0, r8
 235 00e2 FFF7FEFF 		bl	rclc_node_init_default
 236              	.LVL21:
ARM GAS  C:\Users\VR\AppData\Local\Temp\ccmmLOSs.s 			page 21


 370:Core/Src/app_freertos.c **** 		sprintf(joint_name,"joint_%d", jc.joint_number);
 237              		.loc 1 370 3 view .LVU40
 371:Core/Src/app_freertos.c **** 
 238              		.loc 1 371 3 view .LVU41
 239 00e6 0DF5867A 		add	r10, sp, #268
 240 00ea 95F90220 		ldrsb	r2, [r5, #2]
 241 00ee 9549     		ldr	r1, .L7+76
 242 00f0 5046     		mov	r0, r10
 243 00f2 FFF7FEFF 		bl	sprintf
 244              	.LVL22:
 375:Core/Src/app_freertos.c **** 		js_out.position.capacity=1;
 245              		.loc 1 375 3 view .LVU42
 375:Core/Src/app_freertos.c **** 		js_out.position.capacity=1;
 246              		.loc 1 375 23 is_stmt 0 view .LVU43
 247 00f6 944E     		ldr	r6, .L7+80
 248 00f8 0124     		movs	r4, #1
 249 00fa 7462     		str	r4, [r6, #36]
 376:Core/Src/app_freertos.c **** 		js_out.position.data = malloc(js_out.position.capacity*sizeof(double));
 250              		.loc 1 376 3 is_stmt 1 view .LVU44
 376:Core/Src/app_freertos.c **** 		js_out.position.data = malloc(js_out.position.capacity*sizeof(double));
 251              		.loc 1 376 27 is_stmt 0 view .LVU45
 252 00fc B462     		str	r4, [r6, #40]
 377:Core/Src/app_freertos.c **** 		js_out.position.data[0] = 0;
 253              		.loc 1 377 3 is_stmt 1 view .LVU46
 377:Core/Src/app_freertos.c **** 		js_out.position.data[0] = 0;
 254              		.loc 1 377 26 is_stmt 0 view .LVU47
 255 00fe 0820     		movs	r0, #8
 256 0100 FFF7FEFF 		bl	malloc
 257              	.LVL23:
 377:Core/Src/app_freertos.c **** 		js_out.position.data[0] = 0;
 258              		.loc 1 377 24 view .LVU48
 259 0104 3062     		str	r0, [r6, #32]
 378:Core/Src/app_freertos.c **** 		js_out.velocity.size=1;
 260              		.loc 1 378 3 is_stmt 1 view .LVU49
 378:Core/Src/app_freertos.c **** 		js_out.velocity.size=1;
 261              		.loc 1 378 27 is_stmt 0 view .LVU50
 262 0106 9FED7C8B 		vldr.64	d8, .L7
 263 010a 80ED008B 		vstr.64	d8, [r0]
 379:Core/Src/app_freertos.c **** 		js_out.velocity.capacity=1;
 264              		.loc 1 379 3 is_stmt 1 view .LVU51
 379:Core/Src/app_freertos.c **** 		js_out.velocity.capacity=1;
 265              		.loc 1 379 23 is_stmt 0 view .LVU52
 266 010e 3463     		str	r4, [r6, #48]
 380:Core/Src/app_freertos.c **** 		js_out.velocity.data = malloc(js_out.velocity.capacity*sizeof(double));
 267              		.loc 1 380 3 is_stmt 1 view .LVU53
 380:Core/Src/app_freertos.c **** 		js_out.velocity.data = malloc(js_out.velocity.capacity*sizeof(double));
 268              		.loc 1 380 27 is_stmt 0 view .LVU54
 269 0110 7463     		str	r4, [r6, #52]
 381:Core/Src/app_freertos.c **** 		js_out.velocity.data[0] = 0;
 270              		.loc 1 381 3 is_stmt 1 view .LVU55
 381:Core/Src/app_freertos.c **** 		js_out.velocity.data[0] = 0;
 271              		.loc 1 381 26 is_stmt 0 view .LVU56
 272 0112 0820     		movs	r0, #8
 273 0114 FFF7FEFF 		bl	malloc
 274              	.LVL24:
 381:Core/Src/app_freertos.c **** 		js_out.velocity.data[0] = 0;
 275              		.loc 1 381 24 view .LVU57
ARM GAS  C:\Users\VR\AppData\Local\Temp\ccmmLOSs.s 			page 22


 276 0118 F062     		str	r0, [r6, #44]
 382:Core/Src/app_freertos.c **** 		js_out.effort.size=1;
 277              		.loc 1 382 3 is_stmt 1 view .LVU58
 382:Core/Src/app_freertos.c **** 		js_out.effort.size=1;
 278              		.loc 1 382 27 is_stmt 0 view .LVU59
 279 011a 80ED008B 		vstr.64	d8, [r0]
 383:Core/Src/app_freertos.c **** 		js_out.effort.capacity=1;
 280              		.loc 1 383 3 is_stmt 1 view .LVU60
 383:Core/Src/app_freertos.c **** 		js_out.effort.capacity=1;
 281              		.loc 1 383 21 is_stmt 0 view .LVU61
 282 011e F463     		str	r4, [r6, #60]
 384:Core/Src/app_freertos.c **** 		js_out.effort.data = malloc(js_out.effort.capacity*sizeof(double));
 283              		.loc 1 384 3 is_stmt 1 view .LVU62
 384:Core/Src/app_freertos.c **** 		js_out.effort.data = malloc(js_out.effort.capacity*sizeof(double));
 284              		.loc 1 384 25 is_stmt 0 view .LVU63
 285 0120 3464     		str	r4, [r6, #64]
 385:Core/Src/app_freertos.c **** 		js_out.effort.data[0] = 0;
 286              		.loc 1 385 3 is_stmt 1 view .LVU64
 385:Core/Src/app_freertos.c **** 		js_out.effort.data[0] = 0;
 287              		.loc 1 385 24 is_stmt 0 view .LVU65
 288 0122 0820     		movs	r0, #8
 289 0124 FFF7FEFF 		bl	malloc
 290              	.LVL25:
 385:Core/Src/app_freertos.c **** 		js_out.effort.data[0] = 0;
 291              		.loc 1 385 22 view .LVU66
 292 0128 B063     		str	r0, [r6, #56]
 386:Core/Src/app_freertos.c **** 		js_out.name.capacity = 1;
 293              		.loc 1 386 3 is_stmt 1 view .LVU67
 386:Core/Src/app_freertos.c **** 		js_out.name.capacity = 1;
 294              		.loc 1 386 25 is_stmt 0 view .LVU68
 295 012a 80ED008B 		vstr.64	d8, [r0]
 387:Core/Src/app_freertos.c **** 		js_out.name.size = 1;
 296              		.loc 1 387 3 is_stmt 1 view .LVU69
 387:Core/Src/app_freertos.c **** 		js_out.name.size = 1;
 297              		.loc 1 387 24 is_stmt 0 view .LVU70
 298 012e F461     		str	r4, [r6, #28]
 388:Core/Src/app_freertos.c **** 		js_out.name.data = (std_msgs__msg__String*) malloc(js_out.name.capacity*sizeof(std_msgs__msg__Str
 299              		.loc 1 388 3 is_stmt 1 view .LVU71
 388:Core/Src/app_freertos.c **** 		js_out.name.data = (std_msgs__msg__String*) malloc(js_out.name.capacity*sizeof(std_msgs__msg__Str
 300              		.loc 1 388 20 is_stmt 0 view .LVU72
 301 0130 B461     		str	r4, [r6, #24]
 389:Core/Src/app_freertos.c **** 		js_out.name.data[0].data = joint_name;
 302              		.loc 1 389 3 is_stmt 1 view .LVU73
 389:Core/Src/app_freertos.c **** 		js_out.name.data[0].data = joint_name;
 303              		.loc 1 389 47 is_stmt 0 view .LVU74
 304 0132 0C20     		movs	r0, #12
 305 0134 FFF7FEFF 		bl	malloc
 306              	.LVL26:
 389:Core/Src/app_freertos.c **** 		js_out.name.data[0].data = joint_name;
 307              		.loc 1 389 20 view .LVU75
 308 0138 7061     		str	r0, [r6, #20]
 390:Core/Src/app_freertos.c **** 
 309              		.loc 1 390 3 is_stmt 1 view .LVU76
 390:Core/Src/app_freertos.c **** 
 310              		.loc 1 390 28 is_stmt 0 view .LVU77
 311 013a C0F800A0 		str	r10, [r0]
 392:Core/Src/app_freertos.c **** 		sprintf(topic_pub_name,"joint_state_pub_%d", jc.joint_number);
ARM GAS  C:\Users\VR\AppData\Local\Temp\ccmmLOSs.s 			page 23


 312              		.loc 1 392 3 is_stmt 1 view .LVU78
 393:Core/Src/app_freertos.c **** 
 313              		.loc 1 393 3 view .LVU79
 314 013e 95F90220 		ldrsb	r2, [r5, #2]
 315 0142 8249     		ldr	r1, .L7+84
 316 0144 3EA8     		add	r0, sp, #248
 317 0146 FFF7FEFF 		bl	sprintf
 318              	.LVL27:
 395:Core/Src/app_freertos.c **** 			&jc_publisher,
 319              		.loc 1 395 3 view .LVU80
 320 014a FFF7FEFF 		bl	rosidl_typesupport_c__get_message_type_support_handle__sensor_msgs__msg__JointState
 321              	.LVL28:
 322 014e 0246     		mov	r2, r0
 323 0150 3EAB     		add	r3, sp, #248
 324 0152 4146     		mov	r1, r8
 325 0154 7E48     		ldr	r0, .L7+88
 326 0156 FFF7FEFF 		bl	rclc_publisher_init_default
 327              	.LVL29:
 403:Core/Src/app_freertos.c **** 		js_in.position.capacity=1;
 328              		.loc 1 403 3 view .LVU81
 403:Core/Src/app_freertos.c **** 		js_in.position.capacity=1;
 329              		.loc 1 403 22 is_stmt 0 view .LVU82
 330 015a 7E4E     		ldr	r6, .L7+92
 331 015c 7462     		str	r4, [r6, #36]
 404:Core/Src/app_freertos.c **** 		js_in.position.data = malloc(js_in.position.capacity*sizeof(double));
 332              		.loc 1 404 3 is_stmt 1 view .LVU83
 404:Core/Src/app_freertos.c **** 		js_in.position.data = malloc(js_in.position.capacity*sizeof(double));
 333              		.loc 1 404 26 is_stmt 0 view .LVU84
 334 015e B462     		str	r4, [r6, #40]
 405:Core/Src/app_freertos.c **** 		js_in.position.data[0] = 0;
 335              		.loc 1 405 3 is_stmt 1 view .LVU85
 405:Core/Src/app_freertos.c **** 		js_in.position.data[0] = 0;
 336              		.loc 1 405 25 is_stmt 0 view .LVU86
 337 0160 0820     		movs	r0, #8
 338 0162 FFF7FEFF 		bl	malloc
 339              	.LVL30:
 405:Core/Src/app_freertos.c **** 		js_in.position.data[0] = 0;
 340              		.loc 1 405 23 view .LVU87
 341 0166 3062     		str	r0, [r6, #32]
 406:Core/Src/app_freertos.c **** 		js_in.velocity.size=1;
 342              		.loc 1 406 3 is_stmt 1 view .LVU88
 406:Core/Src/app_freertos.c **** 		js_in.velocity.size=1;
 343              		.loc 1 406 26 is_stmt 0 view .LVU89
 344 0168 80ED008B 		vstr.64	d8, [r0]
 407:Core/Src/app_freertos.c **** 		js_in.velocity.capacity=1;
 345              		.loc 1 407 3 is_stmt 1 view .LVU90
 407:Core/Src/app_freertos.c **** 		js_in.velocity.capacity=1;
 346              		.loc 1 407 22 is_stmt 0 view .LVU91
 347 016c 3463     		str	r4, [r6, #48]
 408:Core/Src/app_freertos.c **** 		js_in.velocity.data = malloc(js_in.velocity.capacity*sizeof(double));
 348              		.loc 1 408 3 is_stmt 1 view .LVU92
 408:Core/Src/app_freertos.c **** 		js_in.velocity.data = malloc(js_in.velocity.capacity*sizeof(double));
 349              		.loc 1 408 26 is_stmt 0 view .LVU93
 350 016e 7463     		str	r4, [r6, #52]
 409:Core/Src/app_freertos.c **** 		js_in.velocity.data[0] = 0;
 351              		.loc 1 409 3 is_stmt 1 view .LVU94
 409:Core/Src/app_freertos.c **** 		js_in.velocity.data[0] = 0;
ARM GAS  C:\Users\VR\AppData\Local\Temp\ccmmLOSs.s 			page 24


 352              		.loc 1 409 25 is_stmt 0 view .LVU95
 353 0170 0820     		movs	r0, #8
 354 0172 FFF7FEFF 		bl	malloc
 355              	.LVL31:
 409:Core/Src/app_freertos.c **** 		js_in.velocity.data[0] = 0;
 356              		.loc 1 409 23 view .LVU96
 357 0176 F062     		str	r0, [r6, #44]
 410:Core/Src/app_freertos.c **** 		js_in.effort.size=1;
 358              		.loc 1 410 3 is_stmt 1 view .LVU97
 410:Core/Src/app_freertos.c **** 		js_in.effort.size=1;
 359              		.loc 1 410 26 is_stmt 0 view .LVU98
 360 0178 80ED008B 		vstr.64	d8, [r0]
 411:Core/Src/app_freertos.c **** 		js_in.effort.capacity=1;
 361              		.loc 1 411 3 is_stmt 1 view .LVU99
 411:Core/Src/app_freertos.c **** 		js_in.effort.capacity=1;
 362              		.loc 1 411 20 is_stmt 0 view .LVU100
 363 017c F463     		str	r4, [r6, #60]
 412:Core/Src/app_freertos.c **** 		js_in.effort.data = malloc(js_in.effort.capacity*sizeof(double));
 364              		.loc 1 412 3 is_stmt 1 view .LVU101
 412:Core/Src/app_freertos.c **** 		js_in.effort.data = malloc(js_in.effort.capacity*sizeof(double));
 365              		.loc 1 412 24 is_stmt 0 view .LVU102
 366 017e 3464     		str	r4, [r6, #64]
 413:Core/Src/app_freertos.c **** 		js_in.effort.data[0] = 0;
 367              		.loc 1 413 3 is_stmt 1 view .LVU103
 413:Core/Src/app_freertos.c **** 		js_in.effort.data[0] = 0;
 368              		.loc 1 413 23 is_stmt 0 view .LVU104
 369 0180 0820     		movs	r0, #8
 370 0182 FFF7FEFF 		bl	malloc
 371              	.LVL32:
 413:Core/Src/app_freertos.c **** 		js_in.effort.data[0] = 0;
 372              		.loc 1 413 21 view .LVU105
 373 0186 B063     		str	r0, [r6, #56]
 414:Core/Src/app_freertos.c **** 		js_in.name.capacity = 1;
 374              		.loc 1 414 3 is_stmt 1 view .LVU106
 414:Core/Src/app_freertos.c **** 		js_in.name.capacity = 1;
 375              		.loc 1 414 24 is_stmt 0 view .LVU107
 376 0188 80ED008B 		vstr.64	d8, [r0]
 415:Core/Src/app_freertos.c **** 		js_in.name.size = 1;
 377              		.loc 1 415 3 is_stmt 1 view .LVU108
 415:Core/Src/app_freertos.c **** 		js_in.name.size = 1;
 378              		.loc 1 415 23 is_stmt 0 view .LVU109
 379 018c F461     		str	r4, [r6, #28]
 416:Core/Src/app_freertos.c **** 		js_in.name.data = (std_msgs__msg__String*) malloc(js_in.name.capacity*sizeof(std_msgs__msg__Strin
 380              		.loc 1 416 3 is_stmt 1 view .LVU110
 416:Core/Src/app_freertos.c **** 		js_in.name.data = (std_msgs__msg__String*) malloc(js_in.name.capacity*sizeof(std_msgs__msg__Strin
 381              		.loc 1 416 19 is_stmt 0 view .LVU111
 382 018e B461     		str	r4, [r6, #24]
 417:Core/Src/app_freertos.c **** 
 383              		.loc 1 417 3 is_stmt 1 view .LVU112
 417:Core/Src/app_freertos.c **** 
 384              		.loc 1 417 46 is_stmt 0 view .LVU113
 385 0190 0C20     		movs	r0, #12
 386 0192 FFF7FEFF 		bl	malloc
 387              	.LVL33:
 417:Core/Src/app_freertos.c **** 
 388              		.loc 1 417 19 view .LVU114
 389 0196 7061     		str	r0, [r6, #20]
ARM GAS  C:\Users\VR\AppData\Local\Temp\ccmmLOSs.s 			page 25


 419:Core/Src/app_freertos.c **** 		sprintf(topic_sub_name,"joint_state_sub_%d", jc.joint_number);
 390              		.loc 1 419 3 is_stmt 1 view .LVU115
 420:Core/Src/app_freertos.c **** 
 391              		.loc 1 420 3 view .LVU116
 392 0198 95F90220 		ldrsb	r2, [r5, #2]
 393 019c 6E49     		ldr	r1, .L7+96
 394 019e 39A8     		add	r0, sp, #228
 395 01a0 FFF7FEFF 		bl	sprintf
 396              	.LVL34:
 422:Core/Src/app_freertos.c **** 			&jc_subscriber, &node,
 397              		.loc 1 422 3 view .LVU117
 422:Core/Src/app_freertos.c **** 			&jc_subscriber, &node,
 398              		.loc 1 422 8 is_stmt 0 view .LVU118
 399 01a4 FFF7FEFF 		bl	rosidl_typesupport_c__get_message_type_support_handle__sensor_msgs__msg__JointState
 400              	.LVL35:
 401 01a8 0246     		mov	r2, r0
 402 01aa 39AB     		add	r3, sp, #228
 403 01ac 4146     		mov	r1, r8
 404 01ae 6B48     		ldr	r0, .L7+100
 405 01b0 FFF7FEFF 		bl	rclc_subscription_init_default
 406              	.LVL36:
 422:Core/Src/app_freertos.c **** 			&jc_subscriber, &node,
 407              		.loc 1 422 6 view .LVU119
 408 01b4 DFF800B2 		ldr	fp, .L7+192
 409 01b8 CBF80000 		str	r0, [fp]
 427:Core/Src/app_freertos.c **** 		rc = rclc_executor_init(&jc_executor, &support.context, 1, &allocator);
 410              		.loc 1 427 3 is_stmt 1 view .LVU120
 427:Core/Src/app_freertos.c **** 		rc = rclc_executor_init(&jc_executor, &support.context, 1, &allocator);
 411              		.loc 1 427 17 is_stmt 0 view .LVU121
 412 01bc 02A8     		add	r0, sp, #8
 413 01be FFF7FEFF 		bl	rclc_executor_get_zero_initialized_executor
 414              	.LVL37:
 415 01c2 4FF0880A 		mov	r10, #136
 416 01c6 5246     		mov	r2, r10
 417 01c8 02A9     		add	r1, sp, #8
 418 01ca 6548     		ldr	r0, .L7+104
 419 01cc FFF7FEFF 		bl	memcpy
 420              	.LVL38:
 428:Core/Src/app_freertos.c **** 
 421              		.loc 1 428 3 is_stmt 1 view .LVU122
 428:Core/Src/app_freertos.c **** 
 422              		.loc 1 428 8 is_stmt 0 view .LVU123
 423 01d0 3B46     		mov	r3, r7
 424 01d2 2246     		mov	r2, r4
 425 01d4 4946     		mov	r1, r9
 426 01d6 6248     		ldr	r0, .L7+104
 427 01d8 FFF7FEFF 		bl	rclc_executor_init
 428              	.LVL39:
 428:Core/Src/app_freertos.c **** 
 429              		.loc 1 428 6 view .LVU124
 430 01dc CBF80000 		str	r0, [fp]
 430:Core/Src/app_freertos.c **** 			&jc_executor, &jc_subscriber, &js_in,
 431              		.loc 1 430 3 is_stmt 1 view .LVU125
 430:Core/Src/app_freertos.c **** 			&jc_executor, &jc_subscriber, &js_in,
 432              		.loc 1 430 8 is_stmt 0 view .LVU126
 433 01e0 0023     		movs	r3, #0
 434 01e2 0093     		str	r3, [sp]
ARM GAS  C:\Users\VR\AppData\Local\Temp\ccmmLOSs.s 			page 26


 435 01e4 5F4B     		ldr	r3, .L7+108
 436 01e6 3246     		mov	r2, r6
 437 01e8 5C49     		ldr	r1, .L7+100
 438 01ea 5D48     		ldr	r0, .L7+104
 439 01ec FFF7FEFF 		bl	rclc_executor_add_subscription
 440              	.LVL40:
 430:Core/Src/app_freertos.c **** 			&jc_executor, &jc_subscriber, &js_in,
 441              		.loc 1 430 6 view .LVU127
 442 01f0 CBF80000 		str	r0, [fp]
 437:Core/Src/app_freertos.c **** 		rc = rclc_executor_init(&config_executor, &support.context, 1, &allocator);
 443              		.loc 1 437 3 is_stmt 1 view .LVU128
 437:Core/Src/app_freertos.c **** 		rc = rclc_executor_init(&config_executor, &support.context, 1, &allocator);
 444              		.loc 1 437 21 is_stmt 0 view .LVU129
 445 01f4 5C4E     		ldr	r6, .L7+112
 446 01f6 02A8     		add	r0, sp, #8
 447 01f8 FFF7FEFF 		bl	rclc_executor_get_zero_initialized_executor
 448              	.LVL41:
 449 01fc 5246     		mov	r2, r10
 450 01fe 02A9     		add	r1, sp, #8
 451 0200 3046     		mov	r0, r6
 452 0202 FFF7FEFF 		bl	memcpy
 453              	.LVL42:
 438:Core/Src/app_freertos.c **** 
 454              		.loc 1 438 3 is_stmt 1 view .LVU130
 438:Core/Src/app_freertos.c **** 
 455              		.loc 1 438 8 is_stmt 0 view .LVU131
 456 0206 3B46     		mov	r3, r7
 457 0208 2246     		mov	r2, r4
 458 020a 4946     		mov	r1, r9
 459 020c 3046     		mov	r0, r6
 460 020e FFF7FEFF 		bl	rclc_executor_init
 461              	.LVL43:
 438:Core/Src/app_freertos.c **** 
 462              		.loc 1 438 6 view .LVU132
 463 0212 CBF80000 		str	r0, [fp]
 440:Core/Src/app_freertos.c **** 		sprintf(config_service_name,"/config_service_%d", jc.joint_number);
 464              		.loc 1 440 3 is_stmt 1 view .LVU133
 441:Core/Src/app_freertos.c **** 		//msg init
 465              		.loc 1 441 3 view .LVU134
 466 0216 95F90220 		ldrsb	r2, [r5, #2]
 467 021a 5449     		ldr	r1, .L7+116
 468 021c 34A8     		add	r0, sp, #208
 469 021e FFF7FEFF 		bl	sprintf
 470              	.LVL44:
 443:Core/Src/app_freertos.c **** 		  ROSIDL_GET_SRV_TYPE_SUPPORT(config_service, srv, ConfigService);
 471              		.loc 1 443 3 view .LVU135
 444:Core/Src/app_freertos.c **** 
 472              		.loc 1 444 5 is_stmt 0 view .LVU136
 473 0222 FFF7FEFF 		bl	rosidl_typesupport_c__get_service_type_support_handle__config_service__srv__ConfigService
 474              	.LVL45:
 475 0226 0246     		mov	r2, r0
 476              	.LVL46:
 447:Core/Src/app_freertos.c **** 		  &config_service, &node,
 477              		.loc 1 447 3 is_stmt 1 view .LVU137
 447:Core/Src/app_freertos.c **** 		  &config_service, &node,
 478              		.loc 1 447 18 is_stmt 0 view .LVU138
 479 0228 DFF890B1 		ldr	fp, .L7+196
ARM GAS  C:\Users\VR\AppData\Local\Temp\ccmmLOSs.s 			page 27


 480 022c 34AB     		add	r3, sp, #208
 481 022e 4146     		mov	r1, r8
 482 0230 5846     		mov	r0, fp
 483              	.LVL47:
 447:Core/Src/app_freertos.c **** 		  &config_service, &node,
 484              		.loc 1 447 18 view .LVU139
 485 0232 FFF7FEFF 		bl	rclc_service_init_default
 486              	.LVL48:
 450:Core/Src/app_freertos.c **** 		  &config_executor, &config_service, &request_msg,
 487              		.loc 1 450 3 is_stmt 1 view .LVU140
 488 0236 4E4B     		ldr	r3, .L7+120
 489 0238 0093     		str	r3, [sp]
 490 023a 4E4B     		ldr	r3, .L7+124
 491 023c 4E4A     		ldr	r2, .L7+128
 492 023e 5946     		mov	r1, fp
 493 0240 3046     		mov	r0, r6
 494 0242 FFF7FEFF 		bl	rclc_executor_add_service
 495              	.LVL49:
 457:Core/Src/app_freertos.c **** 		rclc_executor_init(&command_service_executor, &support.context, 1, &allocator);
 496              		.loc 1 457 3 view .LVU141
 457:Core/Src/app_freertos.c **** 		rclc_executor_init(&command_service_executor, &support.context, 1, &allocator);
 497              		.loc 1 457 30 is_stmt 0 view .LVU142
 498 0246 4D4E     		ldr	r6, .L7+132
 499 0248 02A8     		add	r0, sp, #8
 500 024a FFF7FEFF 		bl	rclc_executor_get_zero_initialized_executor
 501              	.LVL50:
 502 024e 5246     		mov	r2, r10
 503 0250 02A9     		add	r1, sp, #8
 504 0252 3046     		mov	r0, r6
 505 0254 FFF7FEFF 		bl	memcpy
 506              	.LVL51:
 458:Core/Src/app_freertos.c **** 
 507              		.loc 1 458 3 is_stmt 1 view .LVU143
 508 0258 3B46     		mov	r3, r7
 509 025a 2246     		mov	r2, r4
 510 025c 4946     		mov	r1, r9
 511 025e 3046     		mov	r0, r6
 512 0260 FFF7FEFF 		bl	rclc_executor_init
 513              	.LVL52:
 460:Core/Src/app_freertos.c **** 		sprintf(command_service_name,"/command_service_%d", jc.joint_number);
 514              		.loc 1 460 3 view .LVU144
 461:Core/Src/app_freertos.c **** 		//msg init
 515              		.loc 1 461 3 view .LVU145
 516 0264 95F90220 		ldrsb	r2, [r5, #2]
 517 0268 4549     		ldr	r1, .L7+136
 518 026a 2FA8     		add	r0, sp, #188
 519 026c FFF7FEFF 		bl	sprintf
 520              	.LVL53:
 463:Core/Src/app_freertos.c **** 		  ROSIDL_GET_SRV_TYPE_SUPPORT(command_service, srv, CommandService);
 521              		.loc 1 463 3 view .LVU146
 464:Core/Src/app_freertos.c **** 		//service init
 522              		.loc 1 464 5 is_stmt 0 view .LVU147
 523 0270 FFF7FEFF 		bl	rosidl_typesupport_c__get_service_type_support_handle__command_service__srv__CommandService
 524              	.LVL54:
 525 0274 0246     		mov	r2, r0
 526              	.LVL55:
 466:Core/Src/app_freertos.c **** 		  &command_service, &node,
ARM GAS  C:\Users\VR\AppData\Local\Temp\ccmmLOSs.s 			page 28


 527              		.loc 1 466 3 is_stmt 1 view .LVU148
 528 0276 DFF848B1 		ldr	fp, .L7+200
 529 027a 2FAB     		add	r3, sp, #188
 530 027c 4146     		mov	r1, r8
 531 027e 5846     		mov	r0, fp
 532              	.LVL56:
 466:Core/Src/app_freertos.c **** 		  &command_service, &node,
 533              		.loc 1 466 3 is_stmt 0 view .LVU149
 534 0280 FFF7FEFF 		bl	rclc_service_init_default
 535              	.LVL57:
 469:Core/Src/app_freertos.c **** 		  &command_service_executor, &command_service, &command_service_request_msg,
 536              		.loc 1 469 3 is_stmt 1 view .LVU150
 537 0284 3F4B     		ldr	r3, .L7+140
 538 0286 0093     		str	r3, [sp]
 539 0288 3F4B     		ldr	r3, .L7+144
 540 028a 404A     		ldr	r2, .L7+148
 541 028c 5946     		mov	r1, fp
 542 028e 3046     		mov	r0, r6
 543 0290 FFF7FEFF 		bl	rclc_executor_add_service
 544              	.LVL58:
 475:Core/Src/app_freertos.c **** 		rclc_executor_init(&diag_service_executor, &support.context, 1, &allocator);
 545              		.loc 1 475 3 view .LVU151
 475:Core/Src/app_freertos.c **** 		rclc_executor_init(&diag_service_executor, &support.context, 1, &allocator);
 546              		.loc 1 475 27 is_stmt 0 view .LVU152
 547 0294 3E4E     		ldr	r6, .L7+152
 548 0296 02A8     		add	r0, sp, #8
 549 0298 FFF7FEFF 		bl	rclc_executor_get_zero_initialized_executor
 550              	.LVL59:
 551 029c 5246     		mov	r2, r10
 552 029e 02A9     		add	r1, sp, #8
 553 02a0 3046     		mov	r0, r6
 554 02a2 FFF7FEFF 		bl	memcpy
 555              	.LVL60:
 476:Core/Src/app_freertos.c **** 
 556              		.loc 1 476 3 is_stmt 1 view .LVU153
 557 02a6 3B46     		mov	r3, r7
 558 02a8 2246     		mov	r2, r4
 559 02aa 4946     		mov	r1, r9
 560 02ac 3046     		mov	r0, r6
 561 02ae FFF7FEFF 		bl	rclc_executor_init
 562              	.LVL61:
 478:Core/Src/app_freertos.c **** 		sprintf(diag_service_name,"/diag_service_%d", jc.joint_number);
 563              		.loc 1 478 3 view .LVU154
 479:Core/Src/app_freertos.c **** 		//msg init
 564              		.loc 1 479 3 view .LVU155
 565 02b2 95F90220 		ldrsb	r2, [r5, #2]
 566 02b6 3749     		ldr	r1, .L7+156
 567 02b8 2BA8     		add	r0, sp, #172
 568 02ba FFF7FEFF 		bl	sprintf
 569              	.LVL62:
 481:Core/Src/app_freertos.c **** 		  ROSIDL_GET_SRV_TYPE_SUPPORT(diag_service, srv, DiagService);
 570              		.loc 1 481 3 view .LVU156
 482:Core/Src/app_freertos.c **** 		//service init
 571              		.loc 1 482 5 is_stmt 0 view .LVU157
 572 02be FFF7FEFF 		bl	rosidl_typesupport_c__get_service_type_support_handle__diag_service__srv__DiagService
 573              	.LVL63:
 574 02c2 0246     		mov	r2, r0
ARM GAS  C:\Users\VR\AppData\Local\Temp\ccmmLOSs.s 			page 29


 575              	.LVL64:
 484:Core/Src/app_freertos.c **** 		  &diag_service, &node,
 576              		.loc 1 484 3 is_stmt 1 view .LVU158
 577 02c4 344C     		ldr	r4, .L7+160
 578 02c6 2BAB     		add	r3, sp, #172
 579 02c8 4146     		mov	r1, r8
 580 02ca 2046     		mov	r0, r4
 581              	.LVL65:
 484:Core/Src/app_freertos.c **** 		  &diag_service, &node,
 582              		.loc 1 484 3 is_stmt 0 view .LVU159
 583 02cc FFF7FEFF 		bl	rclc_service_init_default
 584              	.LVL66:
 487:Core/Src/app_freertos.c **** 		  &diag_service_executor, &diag_service, &diag_service_request_msg,
 585              		.loc 1 487 3 is_stmt 1 view .LVU160
 586 02d0 324B     		ldr	r3, .L7+164
 587 02d2 0093     		str	r3, [sp]
 588 02d4 324B     		ldr	r3, .L7+168
 589 02d6 334A     		ldr	r2, .L7+172
 590 02d8 2146     		mov	r1, r4
 591 02da 3046     		mov	r0, r6
 592 02dc FFF7FEFF 		bl	rclc_executor_add_service
 593              	.LVL67:
 594 02e0 05E0     		b	.L4
 595              	.L6:
 497:Core/Src/app_freertos.c **** 	}
 596              		.loc 1 497 2 view .LVU161
 597 02e2 3148     		ldr	r0, .L7+176
 598 02e4 FFF7FEFF 		bl	HAL_IWDG_Refresh
 599              	.LVL68:
 600              	.L3:
 502:Core/Src/app_freertos.c **** 	}
 601              		.loc 1 502 2 view .LVU162
 602 02e8 3220     		movs	r0, #50
 603 02ea FFF7FEFF 		bl	vTaskDelay
 604              	.LVL69:
 493:Core/Src/app_freertos.c **** 	{
 605              		.loc 1 493 2 view .LVU163
 606              	.L4:
 493:Core/Src/app_freertos.c **** 	{
 607              		.loc 1 493 2 view .LVU164
 495:Core/Src/app_freertos.c **** 	{
 608              		.loc 1 495 2 view .LVU165
 495:Core/Src/app_freertos.c **** 	{
 609              		.loc 1 495 17 is_stmt 0 view .LVU166
 610 02ee 2F4B     		ldr	r3, .L7+180
 611 02f0 1B68     		ldr	r3, [r3]
 495:Core/Src/app_freertos.c **** 	{
 612              		.loc 1 495 5 view .LVU167
 613 02f2 042B     		cmp	r3, #4
 614 02f4 F5D9     		bls	.L6
 615 02f6 F7E7     		b	.L3
 616              	.L8:
 617              		.align	3
 618              	.L7:
 619 02f8 00000000 		.word	0
 620 02fc 00000000 		.word	0
 621 0300 00000000 		.word	jc
ARM GAS  C:\Users\VR\AppData\Local\Temp\ccmmLOSs.s 			page 30


 622 0304 00000000 		.word	motor_cfg
 623 0308 00000000 		.word	.LANCHOR0
 624 030c 00000000 		.word	.LANCHOR1
 625 0310 00000000 		.word	cubemx_transport_read
 626 0314 00000000 		.word	cubemx_transport_write
 627 0318 00000000 		.word	cubemx_transport_close
 628 031c 00000000 		.word	cubemx_transport_open
 629 0320 00000000 		.word	hfdcan1
 630 0324 00000000 		.word	microros_allocate
 631 0328 00000000 		.word	microros_deallocate
 632 032c 00000000 		.word	microros_reallocate
 633 0330 00000000 		.word	microros_zero_allocate
 634 0334 00000000 		.word	.LANCHOR2
 635 0338 00000000 		.word	.LANCHOR3
 636 033c 00000000 		.word	.LC0
 637 0340 10000000 		.word	.LC1
 638 0344 14000000 		.word	.LC2
 639 0348 00000000 		.word	.LANCHOR6
 640 034c 20000000 		.word	.LC3
 641 0350 00000000 		.word	.LANCHOR7
 642 0354 00000000 		.word	.LANCHOR8
 643 0358 34000000 		.word	.LC4
 644 035c 00000000 		.word	.LANCHOR9
 645 0360 00000000 		.word	.LANCHOR11
 646 0364 00000000 		.word	jc_sub_cb
 647 0368 00000000 		.word	.LANCHOR12
 648 036c 48000000 		.word	.LC5
 649 0370 00000000 		.word	config_service_callback
 650 0374 00000000 		.word	.LANCHOR14
 651 0378 00000000 		.word	.LANCHOR15
 652 037c 00000000 		.word	.LANCHOR16
 653 0380 5C000000 		.word	.LC6
 654 0384 00000000 		.word	command_service_callback
 655 0388 00000000 		.word	.LANCHOR18
 656 038c 00000000 		.word	.LANCHOR19
 657 0390 00000000 		.word	.LANCHOR20
 658 0394 70000000 		.word	.LC7
 659 0398 00000000 		.word	.LANCHOR21
 660 039c 00000000 		.word	diag_service_callback
 661 03a0 00000000 		.word	.LANCHOR22
 662 03a4 00000000 		.word	.LANCHOR23
 663 03a8 00000000 		.word	hiwdg
 664 03ac 00000000 		.word	read_fault
 665 03b0 00000000 		.word	.LANCHOR4
 666 03b4 00000000 		.word	.LANCHOR5
 667 03b8 00000000 		.word	.LANCHOR10
 668 03bc 00000000 		.word	.LANCHOR13
 669 03c0 00000000 		.word	.LANCHOR17
 670              		.cfi_endproc
 671              	.LFE141:
 673              		.section	.text.StartTask02,"ax",%progbits
 674              		.align	1
 675              		.global	StartTask02
 676              		.syntax unified
 677              		.thumb
 678              		.thumb_func
 680              	StartTask02:
ARM GAS  C:\Users\VR\AppData\Local\Temp\ccmmLOSs.s 			page 31


 681              	.LFB142:
 516:Core/Src/app_freertos.c ****   /* USER CODE BEGIN StartTask02 */
 682              		.loc 1 516 1 is_stmt 1 view -0
 683              		.cfi_startproc
 684              		@ Volatile: function does not return.
 685              		@ args = 0, pretend = 0, frame = 0
 686              		@ frame_needed = 0, uses_anonymous_args = 0
 687              	.LVL70:
 516:Core/Src/app_freertos.c ****   /* USER CODE BEGIN StartTask02 */
 688              		.loc 1 516 1 is_stmt 0 view .LVU169
 689 0000 08B5     		push	{r3, lr}
 690              	.LCFI3:
 691              		.cfi_def_cfa_offset 8
 692              		.cfi_offset 3, -8
 693              		.cfi_offset 14, -4
 694              	.LVL71:
 695              	.L10:
 520:Core/Src/app_freertos.c **** 	{
 696              		.loc 1 520 2 is_stmt 1 discriminator 1 view .LVU170
 522:Core/Src/app_freertos.c **** 	  osDelay(50);
 697              		.loc 1 522 4 discriminator 1 view .LVU171
 522:Core/Src/app_freertos.c **** 	  osDelay(50);
 698              		.loc 1 522 18 is_stmt 0 discriminator 1 view .LVU172
 699 0002 044B     		ldr	r3, .L12
 700 0004 1B68     		ldr	r3, [r3]
 701 0006 5A6A     		ldr	r2, [r3, #36]
 522:Core/Src/app_freertos.c **** 	  osDelay(50);
 702              		.loc 1 522 16 discriminator 1 view .LVU173
 703 0008 034B     		ldr	r3, .L12+4
 704 000a 1A80     		strh	r2, [r3]	@ movhi
 523:Core/Src/app_freertos.c **** 	}
 705              		.loc 1 523 4 is_stmt 1 discriminator 1 view .LVU174
 706 000c 3220     		movs	r0, #50
 707 000e FFF7FEFF 		bl	osDelay
 708              	.LVL72:
 520:Core/Src/app_freertos.c **** 	{
 709              		.loc 1 520 2 discriminator 1 view .LVU175
 710 0012 F6E7     		b	.L10
 711              	.L13:
 712              		.align	2
 713              	.L12:
 714 0014 00000000 		.word	htim8
 715 0018 00000000 		.word	.LANCHOR24
 716              		.cfi_endproc
 717              	.LFE142:
 719              		.section	.text.StartTask03,"ax",%progbits
 720              		.align	1
 721              		.global	StartTask03
 722              		.syntax unified
 723              		.thumb
 724              		.thumb_func
 726              	StartTask03:
 727              	.LFB143:
 536:Core/Src/app_freertos.c ****   /* USER CODE BEGIN StartTask03 */
 728              		.loc 1 536 1 view -0
 729              		.cfi_startproc
 730              		@ Volatile: function does not return.
ARM GAS  C:\Users\VR\AppData\Local\Temp\ccmmLOSs.s 			page 32


 731              		@ args = 0, pretend = 0, frame = 0
 732              		@ frame_needed = 0, uses_anonymous_args = 0
 733              	.LVL73:
 536:Core/Src/app_freertos.c ****   /* USER CODE BEGIN StartTask03 */
 734              		.loc 1 536 1 is_stmt 0 view .LVU177
 735 0000 08B5     		push	{r3, lr}
 736              	.LCFI4:
 737              		.cfi_def_cfa_offset 8
 738              		.cfi_offset 3, -8
 739              		.cfi_offset 14, -4
 740              	.LVL74:
 741              	.L15:
 540:Core/Src/app_freertos.c **** 	{
 742              		.loc 1 540 2 is_stmt 1 discriminator 1 view .LVU178
 542:Core/Src/app_freertos.c **** 	osDelay(50);
 743              		.loc 1 542 2 discriminator 1 view .LVU179
 744 0002 6421     		movs	r1, #100
 745 0004 0348     		ldr	r0, .L17
 746 0006 FFF7FEFF 		bl	as50_readAngle
 747              	.LVL75:
 543:Core/Src/app_freertos.c **** 	}
 748              		.loc 1 543 2 discriminator 1 view .LVU180
 749 000a 3220     		movs	r0, #50
 750 000c FFF7FEFF 		bl	osDelay
 751              	.LVL76:
 540:Core/Src/app_freertos.c **** 	{
 752              		.loc 1 540 2 discriminator 1 view .LVU181
 753 0010 F7E7     		b	.L15
 754              	.L18:
 755 0012 00BF     		.align	2
 756              	.L17:
 757 0014 00000000 		.word	.LANCHOR25
 758              		.cfi_endproc
 759              	.LFE143:
 761              		.section	.text.StartTask04,"ax",%progbits
 762              		.align	1
 763              		.global	StartTask04
 764              		.syntax unified
 765              		.thumb
 766              		.thumb_func
 768              	StartTask04:
 769              	.LFB144:
 556:Core/Src/app_freertos.c ****   /* USER CODE BEGIN StartTask04 */
 770              		.loc 1 556 1 view -0
 771              		.cfi_startproc
 772              		@ Volatile: function does not return.
 773              		@ args = 0, pretend = 0, frame = 0
 774              		@ frame_needed = 0, uses_anonymous_args = 0
 775              	.LVL77:
 556:Core/Src/app_freertos.c ****   /* USER CODE BEGIN StartTask04 */
 776              		.loc 1 556 1 is_stmt 0 view .LVU183
 777 0000 08B5     		push	{r3, lr}
 778              	.LCFI5:
 779              		.cfi_def_cfa_offset 8
 780              		.cfi_offset 3, -8
 781              		.cfi_offset 14, -4
 782              	.LVL78:
ARM GAS  C:\Users\VR\AppData\Local\Temp\ccmmLOSs.s 			page 33


 783              	.L20:
 560:Core/Src/app_freertos.c **** 	{
 784              		.loc 1 560 2 is_stmt 1 discriminator 1 view .LVU184
 562:Core/Src/app_freertos.c **** 	vTaskDelay(1000);
 785              		.loc 1 562 2 discriminator 1 view .LVU185
 786 0002 0122     		movs	r2, #1
 787 0004 0023     		movs	r3, #0
 788 0006 0448     		ldr	r0, .L22
 789 0008 FFF7FEFF 		bl	rclc_executor_spin_some
 790              	.LVL79:
 563:Core/Src/app_freertos.c **** 	}
 791              		.loc 1 563 2 discriminator 1 view .LVU186
 792 000c 4FF47A70 		mov	r0, #1000
 793 0010 FFF7FEFF 		bl	vTaskDelay
 794              	.LVL80:
 560:Core/Src/app_freertos.c **** 	{
 795              		.loc 1 560 2 discriminator 1 view .LVU187
 796 0014 F5E7     		b	.L20
 797              	.L23:
 798 0016 00BF     		.align	2
 799              	.L22:
 800 0018 00000000 		.word	.LANCHOR12
 801              		.cfi_endproc
 802              	.LFE144:
 804              		.section	.text.StartTask06,"ax",%progbits
 805              		.align	1
 806              		.global	StartTask06
 807              		.syntax unified
 808              		.thumb
 809              		.thumb_func
 811              	StartTask06:
 812              	.LFB145:
 577:Core/Src/app_freertos.c ****   /* USER CODE BEGIN StartTask06 */
 813              		.loc 1 577 1 view -0
 814              		.cfi_startproc
 815              		@ Volatile: function does not return.
 816              		@ args = 0, pretend = 0, frame = 0
 817              		@ frame_needed = 0, uses_anonymous_args = 0
 818              	.LVL81:
 577:Core/Src/app_freertos.c ****   /* USER CODE BEGIN StartTask06 */
 819              		.loc 1 577 1 is_stmt 0 view .LVU189
 820 0000 08B5     		push	{r3, lr}
 821              	.LCFI6:
 822              		.cfi_def_cfa_offset 8
 823              		.cfi_offset 3, -8
 824              		.cfi_offset 14, -4
 825              	.LVL82:
 826              	.L25:
 581:Core/Src/app_freertos.c ****   {
 827              		.loc 1 581 3 is_stmt 1 discriminator 1 view .LVU190
 583:Core/Src/app_freertos.c ****     osDelay(1000);
 828              		.loc 1 583 2 discriminator 1 view .LVU191
 829 0002 0122     		movs	r2, #1
 830 0004 0023     		movs	r3, #0
 831 0006 0448     		ldr	r0, .L27
 832 0008 FFF7FEFF 		bl	rclc_executor_spin_some
 833              	.LVL83:
ARM GAS  C:\Users\VR\AppData\Local\Temp\ccmmLOSs.s 			page 34


 584:Core/Src/app_freertos.c ****   }
 834              		.loc 1 584 5 discriminator 1 view .LVU192
 835 000c 4FF47A70 		mov	r0, #1000
 836 0010 FFF7FEFF 		bl	osDelay
 837              	.LVL84:
 581:Core/Src/app_freertos.c ****   {
 838              		.loc 1 581 3 discriminator 1 view .LVU193
 839 0014 F5E7     		b	.L25
 840              	.L28:
 841 0016 00BF     		.align	2
 842              	.L27:
 843 0018 00000000 		.word	.LANCHOR16
 844              		.cfi_endproc
 845              	.LFE145:
 847              		.section	.text.StartTask10,"ax",%progbits
 848              		.align	1
 849              		.global	StartTask10
 850              		.syntax unified
 851              		.thumb
 852              		.thumb_func
 854              	StartTask10:
 855              	.LFB147:
 624:Core/Src/app_freertos.c ****   /* USER CODE BEGIN StartTask10 */
 856              		.loc 1 624 1 view -0
 857              		.cfi_startproc
 858              		@ Volatile: function does not return.
 859              		@ args = 0, pretend = 0, frame = 0
 860              		@ frame_needed = 0, uses_anonymous_args = 0
 861              	.LVL85:
 624:Core/Src/app_freertos.c ****   /* USER CODE BEGIN StartTask10 */
 862              		.loc 1 624 1 is_stmt 0 view .LVU195
 863 0000 08B5     		push	{r3, lr}
 864              	.LCFI7:
 865              		.cfi_def_cfa_offset 8
 866              		.cfi_offset 3, -8
 867              		.cfi_offset 14, -4
 868              	.LVL86:
 869              	.L30:
 628:Core/Src/app_freertos.c ****   {
 870              		.loc 1 628 3 is_stmt 1 discriminator 1 view .LVU196
 630:Core/Src/app_freertos.c ****     osDelay(1000);
 871              		.loc 1 630 2 discriminator 1 view .LVU197
 872 0002 0122     		movs	r2, #1
 873 0004 0023     		movs	r3, #0
 874 0006 0448     		ldr	r0, .L32
 875 0008 FFF7FEFF 		bl	rclc_executor_spin_some
 876              	.LVL87:
 631:Core/Src/app_freertos.c ****   }
 877              		.loc 1 631 5 discriminator 1 view .LVU198
 878 000c 4FF47A70 		mov	r0, #1000
 879 0010 FFF7FEFF 		bl	osDelay
 880              	.LVL88:
 628:Core/Src/app_freertos.c ****   {
 881              		.loc 1 628 3 discriminator 1 view .LVU199
 882 0014 F5E7     		b	.L30
 883              	.L33:
 884 0016 00BF     		.align	2
ARM GAS  C:\Users\VR\AppData\Local\Temp\ccmmLOSs.s 			page 35


 885              	.L32:
 886 0018 00000000 		.word	.LANCHOR11
 887              		.cfi_endproc
 888              	.LFE147:
 890              		.global	__aeabi_f2d
 891              		.section	.text.StartTask09,"ax",%progbits
 892              		.align	1
 893              		.global	StartTask09
 894              		.syntax unified
 895              		.thumb
 896              		.thumb_func
 898              	StartTask09:
 899              	.LFB146:
 597:Core/Src/app_freertos.c ****   /* USER CODE BEGIN StartTask09 */
 900              		.loc 1 597 1 view -0
 901              		.cfi_startproc
 902              		@ Volatile: function does not return.
 903              		@ args = 0, pretend = 0, frame = 0
 904              		@ frame_needed = 0, uses_anonymous_args = 0
 905              	.LVL89:
 597:Core/Src/app_freertos.c ****   /* USER CODE BEGIN StartTask09 */
 906              		.loc 1 597 1 is_stmt 0 view .LVU201
 907 0000 08B5     		push	{r3, lr}
 908              	.LCFI8:
 909              		.cfi_def_cfa_offset 8
 910              		.cfi_offset 3, -8
 911              		.cfi_offset 14, -4
 912              	.LVL90:
 913              	.L35:
 601:Core/Src/app_freertos.c ****   {
 914              		.loc 1 601 3 is_stmt 1 discriminator 1 view .LVU202
 603:Core/Src/app_freertos.c **** 	js_out.velocity.data[0] = vel;   //QuadEncData; //vel; //velocity_to_go;
 915              		.loc 1 603 2 discriminator 1 view .LVU203
 603:Core/Src/app_freertos.c **** 	js_out.velocity.data[0] = vel;   //QuadEncData; //vel; //velocity_to_go;
 916              		.loc 1 603 17 is_stmt 0 discriminator 1 view .LVU204
 917 0002 0F4C     		ldr	r4, .L37
 918 0004 256A     		ldr	r5, [r4, #32]
 603:Core/Src/app_freertos.c **** 	js_out.velocity.data[0] = vel;   //QuadEncData; //vel; //velocity_to_go;
 919              		.loc 1 603 26 discriminator 1 view .LVU205
 920 0006 0F4B     		ldr	r3, .L37+4
 921 0008 1868     		ldr	r0, [r3]	@ float
 922 000a FFF7FEFF 		bl	__aeabi_f2d
 923              	.LVL91:
 924 000e C5E90001 		strd	r0, [r5]
 604:Core/Src/app_freertos.c **** 	js_out.effort.data[0] = 0.0; //prev_effort;
 925              		.loc 1 604 2 is_stmt 1 discriminator 1 view .LVU206
 604:Core/Src/app_freertos.c **** 	js_out.effort.data[0] = 0.0; //prev_effort;
 926              		.loc 1 604 17 is_stmt 0 discriminator 1 view .LVU207
 927 0012 E56A     		ldr	r5, [r4, #44]
 604:Core/Src/app_freertos.c **** 	js_out.effort.data[0] = 0.0; //prev_effort;
 928              		.loc 1 604 26 discriminator 1 view .LVU208
 929 0014 0C4B     		ldr	r3, .L37+8
 930 0016 1868     		ldr	r0, [r3]	@ float
 931 0018 FFF7FEFF 		bl	__aeabi_f2d
 932              	.LVL92:
 933 001c C5E90001 		strd	r0, [r5]
 605:Core/Src/app_freertos.c **** 
ARM GAS  C:\Users\VR\AppData\Local\Temp\ccmmLOSs.s 			page 36


 934              		.loc 1 605 2 is_stmt 1 discriminator 1 view .LVU209
 605:Core/Src/app_freertos.c **** 
 935              		.loc 1 605 15 is_stmt 0 discriminator 1 view .LVU210
 936 0020 A36B     		ldr	r3, [r4, #56]
 605:Core/Src/app_freertos.c **** 
 937              		.loc 1 605 24 discriminator 1 view .LVU211
 938 0022 0020     		movs	r0, #0
 939 0024 0021     		movs	r1, #0
 940 0026 C3E90001 		strd	r0, [r3]
 608:Core/Src/app_freertos.c **** 	//osSemaphoreRelease(PublisherSemaphoreHandle);
 941              		.loc 1 608 2 is_stmt 1 discriminator 1 view .LVU212
 942 002a 0022     		movs	r2, #0
 943 002c 2146     		mov	r1, r4
 944 002e 0748     		ldr	r0, .L37+12
 945 0030 FFF7FEFF 		bl	rcl_publish
 946              	.LVL93:
 611:Core/Src/app_freertos.c ****   }
 947              		.loc 1 611 5 discriminator 1 view .LVU213
 948 0034 4FF47A70 		mov	r0, #1000
 949 0038 FFF7FEFF 		bl	osDelay
 950              	.LVL94:
 601:Core/Src/app_freertos.c ****   {
 951              		.loc 1 601 3 discriminator 1 view .LVU214
 952 003c E1E7     		b	.L35
 953              	.L38:
 954 003e 00BF     		.align	2
 955              	.L37:
 956 0040 00000000 		.word	.LANCHOR6
 957 0044 00000000 		.word	.LANCHOR26
 958 0048 00000000 		.word	.LANCHOR27
 959 004c 00000000 		.word	.LANCHOR7
 960              		.cfi_endproc
 961              	.LFE146:
 963              		.section	.text.StartTask01,"ax",%progbits
 964              		.align	1
 965              		.global	StartTask01
 966              		.syntax unified
 967              		.thumb
 968              		.thumb_func
 970              	StartTask01:
 971              	.LFB149:
 665:Core/Src/app_freertos.c ****   /* USER CODE BEGIN StartTask01 */
 972              		.loc 1 665 1 view -0
 973              		.cfi_startproc
 974              		@ args = 0, pretend = 0, frame = 0
 975              		@ frame_needed = 0, uses_anonymous_args = 0
 976              	.LVL95:
 665:Core/Src/app_freertos.c ****   /* USER CODE BEGIN StartTask01 */
 977              		.loc 1 665 1 is_stmt 0 view .LVU216
 978 0000 10B5     		push	{r4, lr}
 979              	.LCFI9:
 980              		.cfi_def_cfa_offset 8
 981              		.cfi_offset 4, -8
 982              		.cfi_offset 14, -4
 983 0002 02E0     		b	.L41
 984              	.LVL96:
 985              	.L40:
ARM GAS  C:\Users\VR\AppData\Local\Temp\ccmmLOSs.s 			page 37


 685:Core/Src/app_freertos.c ****   }
 986              		.loc 1 685 5 is_stmt 1 view .LVU217
 987 0004 0A20     		movs	r0, #10
 988 0006 FFF7FEFF 		bl	osDelay
 989              	.LVL97:
 672:Core/Src/app_freertos.c ****   {
 990              		.loc 1 672 3 view .LVU218
 991              	.L41:
 672:Core/Src/app_freertos.c ****   {
 992              		.loc 1 672 3 view .LVU219
 674:Core/Src/app_freertos.c **** 	{
 993              		.loc 1 674 2 view .LVU220
 674:Core/Src/app_freertos.c **** 	{
 994              		.loc 1 674 15 is_stmt 0 view .LVU221
 995 000a 114B     		ldr	r3, .L43
 996 000c DB68     		ldr	r3, [r3, #12]
 674:Core/Src/app_freertos.c **** 	{
 997              		.loc 1 674 5 view .LVU222
 998 000e 002B     		cmp	r3, #0
 999 0010 F8D0     		beq	.L40
 676:Core/Src/app_freertos.c **** 	tmc5160_move(deviation * Kp);
 1000              		.loc 1 676 2 is_stmt 1 view .LVU223
 676:Core/Src/app_freertos.c **** 	tmc5160_move(deviation * Kp);
 1001              		.loc 1 676 16 is_stmt 0 view .LVU224
 1002 0012 104B     		ldr	r3, .L43+4
 1003 0014 D3ED087A 		vldr.32	s15, [r3, #32]
 676:Core/Src/app_freertos.c **** 	tmc5160_move(deviation * Kp);
 1004              		.loc 1 676 26 view .LVU225
 1005 0018 0F4B     		ldr	r3, .L43+8
 1006 001a 1B88     		ldrh	r3, [r3]
 1007 001c 07EE103A 		vmov	s14, r3	@ int
 1008 0020 B8EEC77A 		vcvt.f32.s32	s14, s14
 1009 0024 77EEC77A 		vsub.f32	s15, s15, s14
 676:Core/Src/app_freertos.c **** 	tmc5160_move(deviation * Kp);
 1010              		.loc 1 676 12 view .LVU226
 1011 0028 FCEEE77A 		vcvt.u32.f32	s15, s15
 1012 002c 17EE904A 		vmov	r4, s15	@ int
 1013              	.LVL98:
 677:Core/Src/app_freertos.c **** 	if (deviation<epsilon)
 1014              		.loc 1 677 2 is_stmt 1 view .LVU227
 677:Core/Src/app_freertos.c **** 	if (deviation<epsilon)
 1015              		.loc 1 677 25 is_stmt 0 view .LVU228
 1016 0030 04EB8403 		add	r3, r4, r4, lsl #2
 1017 0034 9800     		lsls	r0, r3, #2
 677:Core/Src/app_freertos.c **** 	if (deviation<epsilon)
 1018              		.loc 1 677 2 view .LVU229
 1019 0036 FFF7FEFF 		bl	tmc5160_move
 1020              	.LVL99:
 678:Core/Src/app_freertos.c **** 	{
 1021              		.loc 1 678 2 is_stmt 1 view .LVU230
 678:Core/Src/app_freertos.c **** 	{
 1022              		.loc 1 678 5 is_stmt 0 view .LVU231
 1023 003a 092C     		cmp	r4, #9
 1024 003c E2D8     		bhi	.L40
 680:Core/Src/app_freertos.c **** 		tmc5160_set_zero();
 1025              		.loc 1 680 3 is_stmt 1 view .LVU232
 1026 003e FFF7FEFF 		bl	tmc5160_stop
ARM GAS  C:\Users\VR\AppData\Local\Temp\ccmmLOSs.s 			page 38


 1027              	.LVL100:
 681:Core/Src/app_freertos.c **** 		state_o_j.CALIBRATE = 0;
 1028              		.loc 1 681 3 view .LVU233
 1029 0042 FFF7FEFF 		bl	tmc5160_set_zero
 1030              	.LVL101:
 682:Core/Src/app_freertos.c **** 	}
 1031              		.loc 1 682 3 view .LVU234
 682:Core/Src/app_freertos.c **** 	}
 1032              		.loc 1 682 23 is_stmt 0 view .LVU235
 1033 0046 024B     		ldr	r3, .L43
 1034 0048 0022     		movs	r2, #0
 1035 004a DA60     		str	r2, [r3, #12]
 1036 004c DAE7     		b	.L40
 1037              	.L44:
 1038 004e 00BF     		.align	2
 1039              	.L43:
 1040 0050 00000000 		.word	.LANCHOR28
 1041 0054 00000000 		.word	jc
 1042 0058 00000000 		.word	.LANCHOR25
 1043              		.cfi_endproc
 1044              	.LFE149:
 1046              		.section	.text.config_service_callback,"ax",%progbits
 1047              		.align	1
 1048              		.global	config_service_callback
 1049              		.syntax unified
 1050              		.thumb
 1051              		.thumb_func
 1053              	config_service_callback:
 1054              	.LVL102:
 1055              	.LFB151:
 708:Core/Src/app_freertos.c ****   // Cast messages to expected types
 1056              		.loc 1 708 76 is_stmt 1 view -0
 1057              		.cfi_startproc
 1058              		@ args = 0, pretend = 0, frame = 0
 1059              		@ frame_needed = 0, uses_anonymous_args = 0
 708:Core/Src/app_freertos.c ****   // Cast messages to expected types
 1060              		.loc 1 708 76 is_stmt 0 view .LVU237
 1061 0000 38B5     		push	{r3, r4, r5, lr}
 1062              	.LCFI10:
 1063              		.cfi_def_cfa_offset 16
 1064              		.cfi_offset 3, -16
 1065              		.cfi_offset 4, -12
 1066              		.cfi_offset 5, -8
 1067              		.cfi_offset 14, -4
 1068 0002 0C46     		mov	r4, r1
 710:Core/Src/app_freertos.c ****     (config_service__srv__ConfigService_Request *) request_msg;
 1069              		.loc 1 710 3 is_stmt 1 view .LVU238
 1070              	.LVL103:
 712:Core/Src/app_freertos.c ****     (config_service__srv__ConfigService_Response *) response_msg;
 1071              		.loc 1 712 3 view .LVU239
 715:Core/Src/app_freertos.c ****   {
 1072              		.loc 1 715 3 view .LVU240
 715:Core/Src/app_freertos.c ****   {
 1073              		.loc 1 715 13 is_stmt 0 view .LVU241
 1074 0004 90F90030 		ldrsb	r3, [r0]
 715:Core/Src/app_freertos.c ****   {
 1075              		.loc 1 715 6 view .LVU242
ARM GAS  C:\Users\VR\AppData\Local\Temp\ccmmLOSs.s 			page 39


 1076 0008 03BB     		cbnz	r3, .L49
 748:Core/Src/app_freertos.c ****   {
 1077              		.loc 1 748 8 is_stmt 1 view .LVU243
 748:Core/Src/app_freertos.c ****   {
 1078              		.loc 1 748 18 is_stmt 0 view .LVU244
 1079 000a 90F90130 		ldrsb	r3, [r0, #1]
 748:Core/Src/app_freertos.c ****   {
 1080              		.loc 1 748 11 view .LVU245
 1081 000e E3B1     		cbz	r3, .L45
 750:Core/Src/app_freertos.c **** 	  res_out->full_steps=jc.full_steps;
 1082              		.loc 1 750 4 is_stmt 1 view .LVU246
 750:Core/Src/app_freertos.c **** 	  res_out->full_steps=jc.full_steps;
 1083              		.loc 1 750 26 is_stmt 0 view .LVU247
 1084 0010 3D4B     		ldr	r3, .L50
 1085 0012 93F90120 		ldrsb	r2, [r3, #1]
 750:Core/Src/app_freertos.c **** 	  res_out->full_steps=jc.full_steps;
 1086              		.loc 1 750 23 view .LVU248
 1087 0016 0A70     		strb	r2, [r1]
 751:Core/Src/app_freertos.c **** 	  res_out->gear_ratio=jc.gear_ratio;
 1088              		.loc 1 751 4 is_stmt 1 view .LVU249
 751:Core/Src/app_freertos.c **** 	  res_out->gear_ratio=jc.gear_ratio;
 1089              		.loc 1 751 26 is_stmt 0 view .LVU250
 1090 0018 9A68     		ldr	r2, [r3, #8]
 751:Core/Src/app_freertos.c **** 	  res_out->gear_ratio=jc.gear_ratio;
 1091              		.loc 1 751 23 view .LVU251
 1092 001a 4A60     		str	r2, [r1, #4]
 752:Core/Src/app_freertos.c **** 	  res_out->joint_number=jc.joint_number;
 1093              		.loc 1 752 4 is_stmt 1 view .LVU252
 752:Core/Src/app_freertos.c **** 	  res_out->joint_number=jc.joint_number;
 1094              		.loc 1 752 26 is_stmt 0 view .LVU253
 1095 001c DA68     		ldr	r2, [r3, #12]	@ float
 752:Core/Src/app_freertos.c **** 	  res_out->joint_number=jc.joint_number;
 1096              		.loc 1 752 23 view .LVU254
 1097 001e 8A60     		str	r2, [r1, #8]	@ float
 753:Core/Src/app_freertos.c **** 	  res_out->lower_limit_enc=jc.lower_limit_enc;
 1098              		.loc 1 753 4 is_stmt 1 view .LVU255
 753:Core/Src/app_freertos.c **** 	  res_out->lower_limit_enc=jc.lower_limit_enc;
 1099              		.loc 1 753 28 is_stmt 0 view .LVU256
 1100 0020 93F90220 		ldrsb	r2, [r3, #2]
 753:Core/Src/app_freertos.c **** 	  res_out->lower_limit_enc=jc.lower_limit_enc;
 1101              		.loc 1 753 25 view .LVU257
 1102 0024 4A70     		strb	r2, [r1, #1]
 754:Core/Src/app_freertos.c **** 	  res_out->lower_limit_ticks=jc.lower_limit_ticks;
 1103              		.loc 1 754 4 is_stmt 1 view .LVU258
 754:Core/Src/app_freertos.c **** 	  res_out->lower_limit_ticks=jc.lower_limit_ticks;
 1104              		.loc 1 754 31 is_stmt 0 view .LVU259
 1105 0026 DA69     		ldr	r2, [r3, #28]	@ float
 754:Core/Src/app_freertos.c **** 	  res_out->lower_limit_ticks=jc.lower_limit_ticks;
 1106              		.loc 1 754 28 view .LVU260
 1107 0028 8A61     		str	r2, [r1, #24]	@ float
 755:Core/Src/app_freertos.c **** 	  res_out->motor_type=jc.motor_type;
 1108              		.loc 1 755 4 is_stmt 1 view .LVU261
 755:Core/Src/app_freertos.c **** 	  res_out->motor_type=jc.motor_type;
 1109              		.loc 1 755 33 is_stmt 0 view .LVU262
 1110 002a 5A69     		ldr	r2, [r3, #20]
 755:Core/Src/app_freertos.c **** 	  res_out->motor_type=jc.motor_type;
 1111              		.loc 1 755 30 view .LVU263
ARM GAS  C:\Users\VR\AppData\Local\Temp\ccmmLOSs.s 			page 40


 1112 002c 0A61     		str	r2, [r1, #16]
 756:Core/Src/app_freertos.c **** 	  res_out->upper_limit_effort=jc.upper_limit_effort;
 1113              		.loc 1 756 4 is_stmt 1 view .LVU264
 756:Core/Src/app_freertos.c **** 	  res_out->upper_limit_effort=jc.upper_limit_effort;
 1114              		.loc 1 756 26 is_stmt 0 view .LVU265
 1115 002e 93F90320 		ldrsb	r2, [r3, #3]
 756:Core/Src/app_freertos.c **** 	  res_out->upper_limit_effort=jc.upper_limit_effort;
 1116              		.loc 1 756 23 view .LVU266
 1117 0032 8A70     		strb	r2, [r1, #2]
 757:Core/Src/app_freertos.c **** 	  res_out->upper_limit_enc=jc.upper_limit_enc;
 1118              		.loc 1 757 4 is_stmt 1 view .LVU267
 757:Core/Src/app_freertos.c **** 	  res_out->upper_limit_enc=jc.upper_limit_enc;
 1119              		.loc 1 757 34 is_stmt 0 view .LVU268
 1120 0034 5A6A     		ldr	r2, [r3, #36]	@ float
 757:Core/Src/app_freertos.c **** 	  res_out->upper_limit_enc=jc.upper_limit_enc;
 1121              		.loc 1 757 31 view .LVU269
 1122 0036 0A62     		str	r2, [r1, #32]	@ float
 758:Core/Src/app_freertos.c **** 	  res_out->upper_limit_ticks=jc.upper_limit_ticks;
 1123              		.loc 1 758 4 is_stmt 1 view .LVU270
 758:Core/Src/app_freertos.c **** 	  res_out->upper_limit_ticks=jc.upper_limit_ticks;
 1124              		.loc 1 758 31 is_stmt 0 view .LVU271
 1125 0038 9A69     		ldr	r2, [r3, #24]	@ float
 758:Core/Src/app_freertos.c **** 	  res_out->upper_limit_ticks=jc.upper_limit_ticks;
 1126              		.loc 1 758 28 view .LVU272
 1127 003a 4A61     		str	r2, [r1, #20]	@ float
 759:Core/Src/app_freertos.c **** 	  res_out->zero_enc=jc.zero_enc;
 1128              		.loc 1 759 4 is_stmt 1 view .LVU273
 759:Core/Src/app_freertos.c **** 	  res_out->zero_enc=jc.zero_enc;
 1129              		.loc 1 759 33 is_stmt 0 view .LVU274
 1130 003c 1A69     		ldr	r2, [r3, #16]
 759:Core/Src/app_freertos.c **** 	  res_out->zero_enc=jc.zero_enc;
 1131              		.loc 1 759 30 view .LVU275
 1132 003e CA60     		str	r2, [r1, #12]
 760:Core/Src/app_freertos.c **** 	  res_out->direction = jc.direction;
 1133              		.loc 1 760 4 is_stmt 1 view .LVU276
 760:Core/Src/app_freertos.c **** 	  res_out->direction = jc.direction;
 1134              		.loc 1 760 24 is_stmt 0 view .LVU277
 1135 0040 1A6A     		ldr	r2, [r3, #32]	@ float
 760:Core/Src/app_freertos.c **** 	  res_out->direction = jc.direction;
 1136              		.loc 1 760 21 view .LVU278
 1137 0042 CA61     		str	r2, [r1, #28]	@ float
 761:Core/Src/app_freertos.c ****   }
 1138              		.loc 1 761 4 is_stmt 1 view .LVU279
 761:Core/Src/app_freertos.c ****   }
 1139              		.loc 1 761 27 is_stmt 0 view .LVU280
 1140 0044 93F90430 		ldrsb	r3, [r3, #4]
 761:Core/Src/app_freertos.c ****   }
 1141              		.loc 1 761 23 view .LVU281
 1142 0048 CB70     		strb	r3, [r1, #3]
 1143              	.LVL104:
 1144              	.L45:
 763:Core/Src/app_freertos.c **** 
 1145              		.loc 1 763 1 view .LVU282
 1146 004a 38BD     		pop	{r3, r4, r5, pc}
 1147              	.LVL105:
 1148              	.L49:
 717:Core/Src/app_freertos.c **** 	jc.lower_limit_enc = req_in->lower_limit_enc;
ARM GAS  C:\Users\VR\AppData\Local\Temp\ccmmLOSs.s 			page 41


 1149              		.loc 1 717 2 is_stmt 1 view .LVU283
 717:Core/Src/app_freertos.c **** 	jc.lower_limit_enc = req_in->lower_limit_enc;
 1150              		.loc 1 717 29 is_stmt 0 view .LVU284
 1151 004c 8369     		ldr	r3, [r0, #24]	@ float
 717:Core/Src/app_freertos.c **** 	jc.lower_limit_enc = req_in->lower_limit_enc;
 1152              		.loc 1 717 21 view .LVU285
 1153 004e 2E4D     		ldr	r5, .L50
 1154 0050 AB61     		str	r3, [r5, #24]	@ float
 718:Core/Src/app_freertos.c **** 	jc.upper_limit_ticks = req_in->upper_limit_ticks * req_in->gear_ratio;
 1155              		.loc 1 718 2 is_stmt 1 view .LVU286
 718:Core/Src/app_freertos.c **** 	jc.upper_limit_ticks = req_in->upper_limit_ticks * req_in->gear_ratio;
 1156              		.loc 1 718 29 is_stmt 0 view .LVU287
 1157 0052 C369     		ldr	r3, [r0, #28]	@ float
 718:Core/Src/app_freertos.c **** 	jc.upper_limit_ticks = req_in->upper_limit_ticks * req_in->gear_ratio;
 1158              		.loc 1 718 21 view .LVU288
 1159 0054 EB61     		str	r3, [r5, #28]	@ float
 719:Core/Src/app_freertos.c **** 	jc.lower_limit_ticks = req_in->lower_limit_ticks * req_in->gear_ratio;
 1160              		.loc 1 719 2 is_stmt 1 view .LVU289
 719:Core/Src/app_freertos.c **** 	jc.lower_limit_ticks = req_in->lower_limit_ticks * req_in->gear_ratio;
 1161              		.loc 1 719 59 is_stmt 0 view .LVU290
 1162 0056 90ED037A 		vldr.32	s14, [r0, #12]
 719:Core/Src/app_freertos.c **** 	jc.lower_limit_ticks = req_in->lower_limit_ticks * req_in->gear_ratio;
 1163              		.loc 1 719 51 view .LVU291
 1164 005a D0ED047A 		vldr.32	s15, [r0, #16]	@ int
 1165 005e F8EEE77A 		vcvt.f32.s32	s15, s15
 1166 0062 67EE877A 		vmul.f32	s15, s15, s14
 719:Core/Src/app_freertos.c **** 	jc.lower_limit_ticks = req_in->lower_limit_ticks * req_in->gear_ratio;
 1167              		.loc 1 719 23 view .LVU292
 1168 0066 FDEEE77A 		vcvt.s32.f32	s15, s15
 1169 006a C5ED047A 		vstr.32	s15, [r5, #16]	@ int
 720:Core/Src/app_freertos.c **** 	jc.domain_id = req_in->domain_id;
 1170              		.loc 1 720 2 is_stmt 1 view .LVU293
 720:Core/Src/app_freertos.c **** 	jc.domain_id = req_in->domain_id;
 1171              		.loc 1 720 59 is_stmt 0 view .LVU294
 1172 006e 90ED037A 		vldr.32	s14, [r0, #12]
 720:Core/Src/app_freertos.c **** 	jc.domain_id = req_in->domain_id;
 1173              		.loc 1 720 51 view .LVU295
 1174 0072 D0ED057A 		vldr.32	s15, [r0, #20]	@ int
 1175 0076 F8EEE77A 		vcvt.f32.s32	s15, s15
 1176 007a 67EE877A 		vmul.f32	s15, s15, s14
 720:Core/Src/app_freertos.c **** 	jc.domain_id = req_in->domain_id;
 1177              		.loc 1 720 23 view .LVU296
 1178 007e FDEEE77A 		vcvt.s32.f32	s15, s15
 1179 0082 C5ED057A 		vstr.32	s15, [r5, #20]	@ int
 721:Core/Src/app_freertos.c **** 	jc.zero_enc = req_in->zero_enc;
 1180              		.loc 1 721 2 is_stmt 1 view .LVU297
 721:Core/Src/app_freertos.c **** 	jc.zero_enc = req_in->zero_enc;
 1181              		.loc 1 721 23 is_stmt 0 view .LVU298
 1182 0086 90F90230 		ldrsb	r3, [r0, #2]
 721:Core/Src/app_freertos.c **** 	jc.zero_enc = req_in->zero_enc;
 1183              		.loc 1 721 15 view .LVU299
 1184 008a 6B70     		strb	r3, [r5, #1]
 722:Core/Src/app_freertos.c **** 	jc.full_steps = req_in->full_steps * req_in->gear_ratio;
 1185              		.loc 1 722 2 is_stmt 1 view .LVU300
 722:Core/Src/app_freertos.c **** 	jc.full_steps = req_in->full_steps * req_in->gear_ratio;
 1186              		.loc 1 722 22 is_stmt 0 view .LVU301
 1187 008c 036A     		ldr	r3, [r0, #32]	@ float
ARM GAS  C:\Users\VR\AppData\Local\Temp\ccmmLOSs.s 			page 42


 722:Core/Src/app_freertos.c **** 	jc.full_steps = req_in->full_steps * req_in->gear_ratio;
 1188              		.loc 1 722 14 view .LVU302
 1189 008e 2B62     		str	r3, [r5, #32]	@ float
 723:Core/Src/app_freertos.c **** 	jc.gear_ratio = req_in->gear_ratio;
 1190              		.loc 1 723 2 is_stmt 1 view .LVU303
 723:Core/Src/app_freertos.c **** 	jc.gear_ratio = req_in->gear_ratio;
 1191              		.loc 1 723 45 is_stmt 0 view .LVU304
 1192 0090 90ED037A 		vldr.32	s14, [r0, #12]
 723:Core/Src/app_freertos.c **** 	jc.gear_ratio = req_in->gear_ratio;
 1193              		.loc 1 723 37 view .LVU305
 1194 0094 D0ED027A 		vldr.32	s15, [r0, #8]	@ int
 1195 0098 F8EE677A 		vcvt.f32.u32	s15, s15
 1196 009c 67EE877A 		vmul.f32	s15, s15, s14
 723:Core/Src/app_freertos.c **** 	jc.gear_ratio = req_in->gear_ratio;
 1197              		.loc 1 723 16 view .LVU306
 1198 00a0 FCEEE77A 		vcvt.u32.f32	s15, s15
 1199 00a4 C5ED027A 		vstr.32	s15, [r5, #8]	@ int
 724:Core/Src/app_freertos.c **** 	jc.motor_type = req_in->motor_type;
 1200              		.loc 1 724 2 is_stmt 1 view .LVU307
 724:Core/Src/app_freertos.c **** 	jc.motor_type = req_in->motor_type;
 1201              		.loc 1 724 16 is_stmt 0 view .LVU308
 1202 00a8 85ED037A 		vstr.32	s14, [r5, #12]
 725:Core/Src/app_freertos.c **** 	jc.direction = req_in->direction;
 1203              		.loc 1 725 2 is_stmt 1 view .LVU309
 725:Core/Src/app_freertos.c **** 	jc.direction = req_in->direction;
 1204              		.loc 1 725 24 is_stmt 0 view .LVU310
 1205 00ac 90F90430 		ldrsb	r3, [r0, #4]
 725:Core/Src/app_freertos.c **** 	jc.direction = req_in->direction;
 1206              		.loc 1 725 16 view .LVU311
 1207 00b0 EB70     		strb	r3, [r5, #3]
 726:Core/Src/app_freertos.c **** 	jc.upper_limit_effort = req_in->upper_limit_effort;
 1208              		.loc 1 726 2 is_stmt 1 view .LVU312
 726:Core/Src/app_freertos.c **** 	jc.upper_limit_effort = req_in->upper_limit_effort;
 1209              		.loc 1 726 23 is_stmt 0 view .LVU313
 1210 00b2 90F90530 		ldrsb	r3, [r0, #5]
 726:Core/Src/app_freertos.c **** 	jc.upper_limit_effort = req_in->upper_limit_effort;
 1211              		.loc 1 726 15 view .LVU314
 1212 00b6 2B71     		strb	r3, [r5, #4]
 727:Core/Src/app_freertos.c **** 	jc.joint_number = req_in->joint_number;
 1213              		.loc 1 727 2 is_stmt 1 view .LVU315
 727:Core/Src/app_freertos.c **** 	jc.joint_number = req_in->joint_number;
 1214              		.loc 1 727 32 is_stmt 0 view .LVU316
 1215 00b8 436A     		ldr	r3, [r0, #36]	@ float
 727:Core/Src/app_freertos.c **** 	jc.joint_number = req_in->joint_number;
 1216              		.loc 1 727 24 view .LVU317
 1217 00ba 6B62     		str	r3, [r5, #36]	@ float
 728:Core/Src/app_freertos.c **** 	jc.first_run = 7;
 1218              		.loc 1 728 2 is_stmt 1 view .LVU318
 728:Core/Src/app_freertos.c **** 	jc.first_run = 7;
 1219              		.loc 1 728 26 is_stmt 0 view .LVU319
 1220 00bc 90F90330 		ldrsb	r3, [r0, #3]
 728:Core/Src/app_freertos.c **** 	jc.first_run = 7;
 1221              		.loc 1 728 18 view .LVU320
 1222 00c0 AB70     		strb	r3, [r5, #2]
 729:Core/Src/app_freertos.c **** 
 1223              		.loc 1 729 2 is_stmt 1 view .LVU321
 729:Core/Src/app_freertos.c **** 
ARM GAS  C:\Users\VR\AppData\Local\Temp\ccmmLOSs.s 			page 43


 1224              		.loc 1 729 15 is_stmt 0 view .LVU322
 1225 00c2 0723     		movs	r3, #7
 1226 00c4 2B70     		strb	r3, [r5]
 731:Core/Src/app_freertos.c **** 
 1227              		.loc 1 731 2 is_stmt 1 view .LVU323
 1228 00c6 2846     		mov	r0, r5
 1229              	.LVL106:
 731:Core/Src/app_freertos.c **** 
 1230              		.loc 1 731 2 is_stmt 0 view .LVU324
 1231 00c8 FFF7FEFF 		bl	joint_config_write
 1232              	.LVL107:
 733:Core/Src/app_freertos.c **** 	res_out->full_steps=jc.full_steps;
 1233              		.loc 1 733 2 is_stmt 1 view .LVU325
 733:Core/Src/app_freertos.c **** 	res_out->full_steps=jc.full_steps;
 1234              		.loc 1 733 24 is_stmt 0 view .LVU326
 1235 00cc 95F90130 		ldrsb	r3, [r5, #1]
 733:Core/Src/app_freertos.c **** 	res_out->full_steps=jc.full_steps;
 1236              		.loc 1 733 21 view .LVU327
 1237 00d0 2370     		strb	r3, [r4]
 734:Core/Src/app_freertos.c **** 	res_out->gear_ratio=jc.gear_ratio;
 1238              		.loc 1 734 2 is_stmt 1 view .LVU328
 734:Core/Src/app_freertos.c **** 	res_out->gear_ratio=jc.gear_ratio;
 1239              		.loc 1 734 24 is_stmt 0 view .LVU329
 1240 00d2 AB68     		ldr	r3, [r5, #8]
 734:Core/Src/app_freertos.c **** 	res_out->gear_ratio=jc.gear_ratio;
 1241              		.loc 1 734 21 view .LVU330
 1242 00d4 6360     		str	r3, [r4, #4]
 735:Core/Src/app_freertos.c **** 	res_out->joint_number=jc.joint_number;
 1243              		.loc 1 735 2 is_stmt 1 view .LVU331
 735:Core/Src/app_freertos.c **** 	res_out->joint_number=jc.joint_number;
 1244              		.loc 1 735 24 is_stmt 0 view .LVU332
 1245 00d6 EB68     		ldr	r3, [r5, #12]	@ float
 735:Core/Src/app_freertos.c **** 	res_out->joint_number=jc.joint_number;
 1246              		.loc 1 735 21 view .LVU333
 1247 00d8 A360     		str	r3, [r4, #8]	@ float
 736:Core/Src/app_freertos.c **** 	res_out->lower_limit_enc=jc.lower_limit_enc;
 1248              		.loc 1 736 2 is_stmt 1 view .LVU334
 736:Core/Src/app_freertos.c **** 	res_out->lower_limit_enc=jc.lower_limit_enc;
 1249              		.loc 1 736 26 is_stmt 0 view .LVU335
 1250 00da 95F90230 		ldrsb	r3, [r5, #2]
 736:Core/Src/app_freertos.c **** 	res_out->lower_limit_enc=jc.lower_limit_enc;
 1251              		.loc 1 736 23 view .LVU336
 1252 00de 6370     		strb	r3, [r4, #1]
 737:Core/Src/app_freertos.c **** 	res_out->lower_limit_ticks=jc.lower_limit_ticks;
 1253              		.loc 1 737 2 is_stmt 1 view .LVU337
 737:Core/Src/app_freertos.c **** 	res_out->lower_limit_ticks=jc.lower_limit_ticks;
 1254              		.loc 1 737 29 is_stmt 0 view .LVU338
 1255 00e0 EB69     		ldr	r3, [r5, #28]	@ float
 737:Core/Src/app_freertos.c **** 	res_out->lower_limit_ticks=jc.lower_limit_ticks;
 1256              		.loc 1 737 26 view .LVU339
 1257 00e2 A361     		str	r3, [r4, #24]	@ float
 738:Core/Src/app_freertos.c **** 	res_out->motor_type=jc.motor_type;
 1258              		.loc 1 738 2 is_stmt 1 view .LVU340
 738:Core/Src/app_freertos.c **** 	res_out->motor_type=jc.motor_type;
 1259              		.loc 1 738 31 is_stmt 0 view .LVU341
 1260 00e4 6B69     		ldr	r3, [r5, #20]
 738:Core/Src/app_freertos.c **** 	res_out->motor_type=jc.motor_type;
ARM GAS  C:\Users\VR\AppData\Local\Temp\ccmmLOSs.s 			page 44


 1261              		.loc 1 738 28 view .LVU342
 1262 00e6 2361     		str	r3, [r4, #16]
 739:Core/Src/app_freertos.c **** 	res_out->upper_limit_effort=jc.upper_limit_effort;
 1263              		.loc 1 739 2 is_stmt 1 view .LVU343
 739:Core/Src/app_freertos.c **** 	res_out->upper_limit_effort=jc.upper_limit_effort;
 1264              		.loc 1 739 24 is_stmt 0 view .LVU344
 1265 00e8 95F90330 		ldrsb	r3, [r5, #3]
 739:Core/Src/app_freertos.c **** 	res_out->upper_limit_effort=jc.upper_limit_effort;
 1266              		.loc 1 739 21 view .LVU345
 1267 00ec A370     		strb	r3, [r4, #2]
 740:Core/Src/app_freertos.c **** 	res_out->upper_limit_enc=jc.upper_limit_enc;
 1268              		.loc 1 740 2 is_stmt 1 view .LVU346
 740:Core/Src/app_freertos.c **** 	res_out->upper_limit_enc=jc.upper_limit_enc;
 1269              		.loc 1 740 32 is_stmt 0 view .LVU347
 1270 00ee 6B6A     		ldr	r3, [r5, #36]	@ float
 740:Core/Src/app_freertos.c **** 	res_out->upper_limit_enc=jc.upper_limit_enc;
 1271              		.loc 1 740 29 view .LVU348
 1272 00f0 2362     		str	r3, [r4, #32]	@ float
 741:Core/Src/app_freertos.c **** 	res_out->upper_limit_ticks=jc.upper_limit_ticks;
 1273              		.loc 1 741 2 is_stmt 1 view .LVU349
 741:Core/Src/app_freertos.c **** 	res_out->upper_limit_ticks=jc.upper_limit_ticks;
 1274              		.loc 1 741 29 is_stmt 0 view .LVU350
 1275 00f2 AB69     		ldr	r3, [r5, #24]	@ float
 741:Core/Src/app_freertos.c **** 	res_out->upper_limit_ticks=jc.upper_limit_ticks;
 1276              		.loc 1 741 26 view .LVU351
 1277 00f4 6361     		str	r3, [r4, #20]	@ float
 742:Core/Src/app_freertos.c **** 	res_out->zero_enc=jc.zero_enc;
 1278              		.loc 1 742 2 is_stmt 1 view .LVU352
 742:Core/Src/app_freertos.c **** 	res_out->zero_enc=jc.zero_enc;
 1279              		.loc 1 742 31 is_stmt 0 view .LVU353
 1280 00f6 2B69     		ldr	r3, [r5, #16]
 742:Core/Src/app_freertos.c **** 	res_out->zero_enc=jc.zero_enc;
 1281              		.loc 1 742 28 view .LVU354
 1282 00f8 E360     		str	r3, [r4, #12]
 743:Core/Src/app_freertos.c **** 	res_out->direction = jc.direction;
 1283              		.loc 1 743 2 is_stmt 1 view .LVU355
 743:Core/Src/app_freertos.c **** 	res_out->direction = jc.direction;
 1284              		.loc 1 743 22 is_stmt 0 view .LVU356
 1285 00fa 2B6A     		ldr	r3, [r5, #32]	@ float
 743:Core/Src/app_freertos.c **** 	res_out->direction = jc.direction;
 1286              		.loc 1 743 19 view .LVU357
 1287 00fc E361     		str	r3, [r4, #28]	@ float
 744:Core/Src/app_freertos.c **** 
 1288              		.loc 1 744 2 is_stmt 1 view .LVU358
 744:Core/Src/app_freertos.c **** 
 1289              		.loc 1 744 25 is_stmt 0 view .LVU359
 1290 00fe 95F90430 		ldrsb	r3, [r5, #4]
 744:Core/Src/app_freertos.c **** 
 1291              		.loc 1 744 21 view .LVU360
 1292 0102 E370     		strb	r3, [r4, #3]
 1293 0104 A1E7     		b	.L45
 1294              	.L51:
 1295 0106 00BF     		.align	2
 1296              	.L50:
 1297 0108 00000000 		.word	jc
 1298              		.cfi_endproc
 1299              	.LFE151:
ARM GAS  C:\Users\VR\AppData\Local\Temp\ccmmLOSs.s 			page 45


 1301              		.section	.text.command_service_callback,"ax",%progbits
 1302              		.align	1
 1303              		.global	command_service_callback
 1304              		.syntax unified
 1305              		.thumb
 1306              		.thumb_func
 1308              	command_service_callback:
 1309              	.LVL108:
 1310              	.LFB152:
 766:Core/Src/app_freertos.c ****   // Cast messages to expected type
 1311              		.loc 1 766 1 is_stmt 1 view -0
 1312              		.cfi_startproc
 1313              		@ args = 0, pretend = 0, frame = 0
 1314              		@ frame_needed = 0, uses_anonymous_args = 0
 766:Core/Src/app_freertos.c ****   // Cast messages to expected type
 1315              		.loc 1 766 1 is_stmt 0 view .LVU362
 1316 0000 38B5     		push	{r3, r4, r5, lr}
 1317              	.LCFI11:
 1318              		.cfi_def_cfa_offset 16
 1319              		.cfi_offset 3, -16
 1320              		.cfi_offset 4, -12
 1321              		.cfi_offset 5, -8
 1322              		.cfi_offset 14, -4
 1323 0002 0446     		mov	r4, r0
 1324 0004 0D46     		mov	r5, r1
 768:Core/Src/app_freertos.c **** 	(command_service__srv__CommandService_Request *) request_msg;
 1325              		.loc 1 768 2 is_stmt 1 view .LVU363
 1326              	.LVL109:
 770:Core/Src/app_freertos.c **** 	(command_service__srv__CommandService_Response *) response_msg;
 1327              		.loc 1 770 2 view .LVU364
 776:Core/Src/app_freertos.c **** 	{
 1328              		.loc 1 776 2 view .LVU365
 776:Core/Src/app_freertos.c **** 	{
 1329              		.loc 1 776 12 is_stmt 0 view .LVU366
 1330 0006 0378     		ldrb	r3, [r0]	@ zero_extendqisi2
 776:Core/Src/app_freertos.c **** 	{
 1331              		.loc 1 776 5 view .LVU367
 1332 0008 002B     		cmp	r3, #0
 1333 000a 2AD1     		bne	.L53
 778:Core/Src/app_freertos.c **** 		//vTaskResume(jcPublisherHandle); //TODO
 1334              		.loc 1 778 3 is_stmt 1 view .LVU368
 1335 000c 364B     		ldr	r3, .L74
 1336 000e 1868     		ldr	r0, [r3]
 1337              	.LVL110:
 778:Core/Src/app_freertos.c **** 		//vTaskResume(jcPublisherHandle); //TODO
 1338              		.loc 1 778 3 is_stmt 0 view .LVU369
 1339 0010 FFF7FEFF 		bl	vTaskSuspend
 1340              	.LVL111:
 780:Core/Src/app_freertos.c **** 	}
 1341              		.loc 1 780 3 is_stmt 1 view .LVU370
 1342 0014 354B     		ldr	r3, .L74+4
 1343 0016 1868     		ldr	r0, [r3]
 1344 0018 FFF7FEFF 		bl	vTaskResume
 1345              	.LVL112:
 1346              	.L54:
 789:Core/Src/app_freertos.c **** 		{
 1347              		.loc 1 789 3 view .LVU371
ARM GAS  C:\Users\VR\AppData\Local\Temp\ccmmLOSs.s 			page 46


 789:Core/Src/app_freertos.c **** 		{
 1348              		.loc 1 789 13 is_stmt 0 view .LVU372
 1349 001c E379     		ldrb	r3, [r4, #7]	@ zero_extendqisi2
 789:Core/Src/app_freertos.c **** 		{
 1350              		.loc 1 789 6 view .LVU373
 1351 001e 002B     		cmp	r3, #0
 1352 0020 2DD1     		bne	.L66
 1353              	.L55:
 793:Core/Src/app_freertos.c **** 		{
 1354              		.loc 1 793 3 is_stmt 1 view .LVU374
 793:Core/Src/app_freertos.c **** 		{
 1355              		.loc 1 793 13 is_stmt 0 view .LVU375
 1356 0022 A378     		ldrb	r3, [r4, #2]	@ zero_extendqisi2
 793:Core/Src/app_freertos.c **** 		{
 1357              		.loc 1 793 6 view .LVU376
 1358 0024 002B     		cmp	r3, #0
 1359 0026 2DD1     		bne	.L67
 1360              	.L56:
 797:Core/Src/app_freertos.c **** 		{
 1361              		.loc 1 797 3 is_stmt 1 view .LVU377
 797:Core/Src/app_freertos.c **** 		{
 1362              		.loc 1 797 13 is_stmt 0 view .LVU378
 1363 0028 6378     		ldrb	r3, [r4, #1]	@ zero_extendqisi2
 797:Core/Src/app_freertos.c **** 		{
 1364              		.loc 1 797 6 view .LVU379
 1365 002a 002B     		cmp	r3, #0
 1366 002c 2DD1     		bne	.L68
 1367              	.L57:
 801:Core/Src/app_freertos.c **** 		{
 1368              		.loc 1 801 3 is_stmt 1 view .LVU380
 801:Core/Src/app_freertos.c **** 		{
 1369              		.loc 1 801 13 is_stmt 0 view .LVU381
 1370 002e 6379     		ldrb	r3, [r4, #5]	@ zero_extendqisi2
 801:Core/Src/app_freertos.c **** 		{
 1371              		.loc 1 801 6 view .LVU382
 1372 0030 002B     		cmp	r3, #0
 1373 0032 2DD0     		beq	.L58
 803:Core/Src/app_freertos.c **** 			vTaskResume(calibrateTaskHandle);
 1374              		.loc 1 803 4 is_stmt 1 view .LVU383
 803:Core/Src/app_freertos.c **** 			vTaskResume(calibrateTaskHandle);
 1375              		.loc 1 803 24 is_stmt 0 view .LVU384
 1376 0034 2E4B     		ldr	r3, .L74+8
 1377 0036 0122     		movs	r2, #1
 1378 0038 DA60     		str	r2, [r3, #12]
 804:Core/Src/app_freertos.c **** 		}
 1379              		.loc 1 804 4 is_stmt 1 view .LVU385
 1380 003a 2E4B     		ldr	r3, .L74+12
 1381 003c 1868     		ldr	r0, [r3]
 1382 003e FFF7FEFF 		bl	vTaskResume
 1383              	.LVL113:
 1384              	.L59:
 811:Core/Src/app_freertos.c **** 		{
 1385              		.loc 1 811 3 view .LVU386
 811:Core/Src/app_freertos.c **** 		{
 1386              		.loc 1 811 13 is_stmt 0 view .LVU387
 1387 0042 A379     		ldrb	r3, [r4, #6]	@ zero_extendqisi2
 811:Core/Src/app_freertos.c **** 		{
ARM GAS  C:\Users\VR\AppData\Local\Temp\ccmmLOSs.s 			page 47


 1388              		.loc 1 811 6 view .LVU388
 1389 0044 002B     		cmp	r3, #0
 1390 0046 2BD1     		bne	.L69
 1391              	.L60:
 816:Core/Src/app_freertos.c **** 		{
 1392              		.loc 1 816 3 is_stmt 1 view .LVU389
 816:Core/Src/app_freertos.c **** 		{
 1393              		.loc 1 816 13 is_stmt 0 view .LVU390
 1394 0048 E378     		ldrb	r3, [r4, #3]	@ zero_extendqisi2
 816:Core/Src/app_freertos.c **** 		{
 1395              		.loc 1 816 6 view .LVU391
 1396 004a 002B     		cmp	r3, #0
 1397 004c 2FD1     		bne	.L70
 1398              	.L61:
 820:Core/Src/app_freertos.c **** 		{
 1399              		.loc 1 820 3 is_stmt 1 view .LVU392
 820:Core/Src/app_freertos.c **** 		{
 1400              		.loc 1 820 12 is_stmt 0 view .LVU393
 1401 004e E368     		ldr	r3, [r4, #12]
 820:Core/Src/app_freertos.c **** 		{
 1402              		.loc 1 820 5 view .LVU394
 1403 0050 002B     		cmp	r3, #0
 1404 0052 2FD1     		bne	.L71
 1405              	.L62:
 827:Core/Src/app_freertos.c **** 		{
 1406              		.loc 1 827 3 is_stmt 1 view .LVU395
 827:Core/Src/app_freertos.c **** 		{
 1407              		.loc 1 827 12 is_stmt 0 view .LVU396
 1408 0054 637A     		ldrb	r3, [r4, #9]	@ zero_extendqisi2
 827:Core/Src/app_freertos.c **** 		{
 1409              		.loc 1 827 5 view .LVU397
 1410 0056 002B     		cmp	r3, #0
 1411 0058 36D1     		bne	.L72
 1412              	.L63:
 832:Core/Src/app_freertos.c **** 		{
 1413              		.loc 1 832 3 is_stmt 1 view .LVU398
 832:Core/Src/app_freertos.c **** 		{
 1414              		.loc 1 832 12 is_stmt 0 view .LVU399
 1415 005a 237A     		ldrb	r3, [r4, #8]	@ zero_extendqisi2
 832:Core/Src/app_freertos.c **** 		{
 1416              		.loc 1 832 5 view .LVU400
 1417 005c 002B     		cmp	r3, #0
 1418 005e 3BD1     		bne	.L73
 1419              	.L52:
 837:Core/Src/app_freertos.c **** 
 1420              		.loc 1 837 1 view .LVU401
 1421 0060 38BD     		pop	{r3, r4, r5, pc}
 1422              	.LVL114:
 1423              	.L53:
 782:Core/Src/app_freertos.c **** 	{
 1424              		.loc 1 782 7 is_stmt 1 view .LVU402
 784:Core/Src/app_freertos.c **** 		vTaskResume(configServiceHandle);
 1425              		.loc 1 784 3 view .LVU403
 1426 0062 0122     		movs	r2, #1
 1427 0064 0421     		movs	r1, #4
 1428              	.LVL115:
 784:Core/Src/app_freertos.c **** 		vTaskResume(configServiceHandle);
ARM GAS  C:\Users\VR\AppData\Local\Temp\ccmmLOSs.s 			page 48


 1429              		.loc 1 784 3 is_stmt 0 view .LVU404
 1430 0066 2448     		ldr	r0, .L74+16
 1431              	.LVL116:
 784:Core/Src/app_freertos.c **** 		vTaskResume(configServiceHandle);
 1432              		.loc 1 784 3 view .LVU405
 1433 0068 FFF7FEFF 		bl	HAL_GPIO_WritePin
 1434              	.LVL117:
 785:Core/Src/app_freertos.c **** 		//vTaskSuspend(jcPublisherHandle); //TODO to check why this is hanging MCU
 1435              		.loc 1 785 3 is_stmt 1 view .LVU406
 1436 006c 1E4B     		ldr	r3, .L74
 1437 006e 1868     		ldr	r0, [r3]
 1438 0070 FFF7FEFF 		bl	vTaskResume
 1439              	.LVL118:
 787:Core/Src/app_freertos.c **** 	}
 1440              		.loc 1 787 3 view .LVU407
 1441 0074 1D4B     		ldr	r3, .L74+4
 1442 0076 1868     		ldr	r0, [r3]
 1443 0078 FFF7FEFF 		bl	vTaskSuspend
 1444              	.LVL119:
 1445 007c CEE7     		b	.L54
 1446              	.L66:
 791:Core/Src/app_freertos.c **** 		}
 1447              		.loc 1 791 4 view .LVU408
 1448 007e FFF7FEFF 		bl	tmc5160_set_zero
 1449              	.LVL120:
 1450 0082 CEE7     		b	.L55
 1451              	.L67:
 795:Core/Src/app_freertos.c **** 		}
 1452              		.loc 1 795 4 view .LVU409
 1453 0084 FFF7FEFF 		bl	tmc5160_arm
 1454              	.LVL121:
 1455 0088 CEE7     		b	.L56
 1456              	.L68:
 799:Core/Src/app_freertos.c **** 		}
 1457              		.loc 1 799 4 view .LVU410
 1458 008a FFF7FEFF 		bl	tmc5160_disarm
 1459              	.LVL122:
 1460 008e CEE7     		b	.L57
 1461              	.L58:
 806:Core/Src/app_freertos.c **** 		{
 1462              		.loc 1 806 8 view .LVU411
 808:Core/Src/app_freertos.c **** 			vTaskSuspend(calibrateTaskHandle);
 1463              		.loc 1 808 4 view .LVU412
 808:Core/Src/app_freertos.c **** 			vTaskSuspend(calibrateTaskHandle);
 1464              		.loc 1 808 24 is_stmt 0 view .LVU413
 1465 0090 174B     		ldr	r3, .L74+8
 1466 0092 0022     		movs	r2, #0
 1467 0094 DA60     		str	r2, [r3, #12]
 809:Core/Src/app_freertos.c **** 		}
 1468              		.loc 1 809 4 is_stmt 1 view .LVU414
 1469 0096 174B     		ldr	r3, .L74+12
 1470 0098 1868     		ldr	r0, [r3]
 1471 009a FFF7FEFF 		bl	vTaskSuspend
 1472              	.LVL123:
 1473 009e D0E7     		b	.L59
 1474              	.L69:
 813:Core/Src/app_freertos.c **** 			res_out->position_in_ticks = tmc5160_position_read();
ARM GAS  C:\Users\VR\AppData\Local\Temp\ccmmLOSs.s 			page 49


 1475              		.loc 1 813 4 view .LVU415
 813:Core/Src/app_freertos.c **** 			res_out->position_in_ticks = tmc5160_position_read();
 1476              		.loc 1 813 19 is_stmt 0 view .LVU416
 1477 00a0 164B     		ldr	r3, .L74+20
 1478 00a2 1B88     		ldrh	r3, [r3]
 1479 00a4 6B80     		strh	r3, [r5, #2]	@ movhi
 814:Core/Src/app_freertos.c **** 		}
 1480              		.loc 1 814 4 is_stmt 1 view .LVU417
 814:Core/Src/app_freertos.c **** 		}
 1481              		.loc 1 814 33 is_stmt 0 view .LVU418
 1482 00a6 FFF7FEFF 		bl	tmc5160_position_read
 1483              	.LVL124:
 814:Core/Src/app_freertos.c **** 		}
 1484              		.loc 1 814 31 view .LVU419
 1485 00aa 6860     		str	r0, [r5, #4]
 1486 00ac CCE7     		b	.L60
 1487              	.L70:
 818:Core/Src/app_freertos.c **** 		}
 1488              		.loc 1 818 4 is_stmt 1 view .LVU420
 1489 00ae FFF7FEFF 		bl	tmc5160_stop
 1490              	.LVL125:
 1491 00b2 CCE7     		b	.L61
 1492              	.L71:
 822:Core/Src/app_freertos.c **** 			tmc5160_position(req_in->position);
 1493              		.loc 1 822 4 view .LVU421
 1494 00b4 FFF7FEFF 		bl	tmc5160_set_default_vel
 1495              	.LVL126:
 823:Core/Src/app_freertos.c **** 			res_out->success=1;
 1496              		.loc 1 823 4 view .LVU422
 1497 00b8 E068     		ldr	r0, [r4, #12]
 1498 00ba FFF7FEFF 		bl	tmc5160_position
 1499              	.LVL127:
 824:Core/Src/app_freertos.c **** 			res_out->position_in_ticks = req_in->position;
 1500              		.loc 1 824 4 view .LVU423
 824:Core/Src/app_freertos.c **** 			res_out->position_in_ticks = req_in->position;
 1501              		.loc 1 824 20 is_stmt 0 view .LVU424
 1502 00be 0123     		movs	r3, #1
 1503 00c0 2B70     		strb	r3, [r5]
 825:Core/Src/app_freertos.c **** 		}
 1504              		.loc 1 825 4 is_stmt 1 view .LVU425
 825:Core/Src/app_freertos.c **** 		}
 1505              		.loc 1 825 39 is_stmt 0 view .LVU426
 1506 00c2 E368     		ldr	r3, [r4, #12]
 825:Core/Src/app_freertos.c **** 		}
 1507              		.loc 1 825 31 view .LVU427
 1508 00c4 6B60     		str	r3, [r5, #4]
 1509 00c6 C5E7     		b	.L62
 1510              	.L72:
 829:Core/Src/app_freertos.c **** 			joint_config_write(&jc);
 1511              		.loc 1 829 4 is_stmt 1 view .LVU428
 829:Core/Src/app_freertos.c **** 			joint_config_write(&jc);
 1512              		.loc 1 829 27 is_stmt 0 view .LVU429
 1513 00c8 FFF7FEFF 		bl	tmc5160_position_read
 1514              	.LVL128:
 829:Core/Src/app_freertos.c **** 			joint_config_write(&jc);
 1515              		.loc 1 829 25 view .LVU430
 1516 00cc 0C4B     		ldr	r3, .L74+24
ARM GAS  C:\Users\VR\AppData\Local\Temp\ccmmLOSs.s 			page 50


 1517 00ce 5861     		str	r0, [r3, #20]
 830:Core/Src/app_freertos.c **** 		}
 1518              		.loc 1 830 4 is_stmt 1 view .LVU431
 1519 00d0 1846     		mov	r0, r3
 1520 00d2 FFF7FEFF 		bl	joint_config_write
 1521              	.LVL129:
 1522 00d6 C0E7     		b	.L63
 1523              	.L73:
 834:Core/Src/app_freertos.c **** 			joint_config_write(&jc);
 1524              		.loc 1 834 4 view .LVU432
 834:Core/Src/app_freertos.c **** 			joint_config_write(&jc);
 1525              		.loc 1 834 27 is_stmt 0 view .LVU433
 1526 00d8 FFF7FEFF 		bl	tmc5160_position_read
 1527              	.LVL130:
 834:Core/Src/app_freertos.c **** 			joint_config_write(&jc);
 1528              		.loc 1 834 25 view .LVU434
 1529 00dc 084B     		ldr	r3, .L74+24
 1530 00de 1861     		str	r0, [r3, #16]
 835:Core/Src/app_freertos.c **** 		}
 1531              		.loc 1 835 4 is_stmt 1 view .LVU435
 1532 00e0 1846     		mov	r0, r3
 1533 00e2 FFF7FEFF 		bl	joint_config_write
 1534              	.LVL131:
 837:Core/Src/app_freertos.c **** 
 1535              		.loc 1 837 1 is_stmt 0 view .LVU436
 1536 00e6 BBE7     		b	.L52
 1537              	.L75:
 1538              		.align	2
 1539              	.L74:
 1540 00e8 00000000 		.word	.LANCHOR0
 1541 00ec 00000000 		.word	.LANCHOR29
 1542 00f0 00000000 		.word	.LANCHOR28
 1543 00f4 00000000 		.word	.LANCHOR1
 1544 00f8 000C0048 		.word	1207962624
 1545 00fc 00000000 		.word	.LANCHOR25
 1546 0100 00000000 		.word	jc
 1547              		.cfi_endproc
 1548              	.LFE152:
 1550              		.section	.text.MX_FREERTOS_Init,"ax",%progbits
 1551              		.align	1
 1552              		.global	MX_FREERTOS_Init
 1553              		.syntax unified
 1554              		.thumb
 1555              		.thumb_func
 1557              	MX_FREERTOS_Init:
 1558              	.LFB140:
 247:Core/Src/app_freertos.c ****   /* USER CODE BEGIN Init */
 1559              		.loc 1 247 29 is_stmt 1 view -0
 1560              		.cfi_startproc
 1561              		@ args = 0, pretend = 0, frame = 0
 1562              		@ frame_needed = 0, uses_anonymous_args = 0
 1563 0000 08B5     		push	{r3, lr}
 1564              	.LCFI12:
 1565              		.cfi_def_cfa_offset 8
 1566              		.cfi_offset 3, -8
 1567              		.cfi_offset 14, -4
 258:Core/Src/app_freertos.c **** 
ARM GAS  C:\Users\VR\AppData\Local\Temp\ccmmLOSs.s 			page 51


 1568              		.loc 1 258 3 view .LVU438
 258:Core/Src/app_freertos.c **** 
 1569              		.loc 1 258 30 is_stmt 0 view .LVU439
 1570 0002 234A     		ldr	r2, .L78
 1571 0004 0021     		movs	r1, #0
 1572 0006 0120     		movs	r0, #1
 1573 0008 FFF7FEFF 		bl	osSemaphoreNew
 1574              	.LVL132:
 258:Core/Src/app_freertos.c **** 
 1575              		.loc 1 258 28 view .LVU440
 1576 000c 214B     		ldr	r3, .L78+4
 1577 000e 1860     		str	r0, [r3]
 274:Core/Src/app_freertos.c **** 
 1578              		.loc 1 274 3 is_stmt 1 view .LVU441
 274:Core/Src/app_freertos.c **** 
 1579              		.loc 1 274 23 is_stmt 0 view .LVU442
 1580 0010 214A     		ldr	r2, .L78+8
 1581 0012 0021     		movs	r1, #0
 1582 0014 2148     		ldr	r0, .L78+12
 1583 0016 FFF7FEFF 		bl	osThreadNew
 1584              	.LVL133:
 274:Core/Src/app_freertos.c **** 
 1585              		.loc 1 274 21 view .LVU443
 1586 001a 214B     		ldr	r3, .L78+16
 1587 001c 1860     		str	r0, [r3]
 277:Core/Src/app_freertos.c **** 
 1588              		.loc 1 277 3 is_stmt 1 view .LVU444
 277:Core/Src/app_freertos.c **** 
 1589              		.loc 1 277 27 is_stmt 0 view .LVU445
 1590 001e 214A     		ldr	r2, .L78+20
 1591 0020 0021     		movs	r1, #0
 1592 0022 2148     		ldr	r0, .L78+24
 1593 0024 FFF7FEFF 		bl	osThreadNew
 1594              	.LVL134:
 277:Core/Src/app_freertos.c **** 
 1595              		.loc 1 277 25 view .LVU446
 1596 0028 204B     		ldr	r3, .L78+28
 1597 002a 1860     		str	r0, [r3]
 280:Core/Src/app_freertos.c **** 
 1598              		.loc 1 280 3 is_stmt 1 view .LVU447
 280:Core/Src/app_freertos.c **** 
 1599              		.loc 1 280 26 is_stmt 0 view .LVU448
 1600 002c 204A     		ldr	r2, .L78+32
 1601 002e 0021     		movs	r1, #0
 1602 0030 2048     		ldr	r0, .L78+36
 1603 0032 FFF7FEFF 		bl	osThreadNew
 1604              	.LVL135:
 280:Core/Src/app_freertos.c **** 
 1605              		.loc 1 280 24 view .LVU449
 1606 0036 204B     		ldr	r3, .L78+40
 1607 0038 1860     		str	r0, [r3]
 283:Core/Src/app_freertos.c **** 
 1608              		.loc 1 283 3 is_stmt 1 view .LVU450
 283:Core/Src/app_freertos.c **** 
 1609              		.loc 1 283 25 is_stmt 0 view .LVU451
 1610 003a 204A     		ldr	r2, .L78+44
 1611 003c 0021     		movs	r1, #0
ARM GAS  C:\Users\VR\AppData\Local\Temp\ccmmLOSs.s 			page 52


 1612 003e 2048     		ldr	r0, .L78+48
 1613 0040 FFF7FEFF 		bl	osThreadNew
 1614              	.LVL136:
 283:Core/Src/app_freertos.c **** 
 1615              		.loc 1 283 23 view .LVU452
 1616 0044 1F4B     		ldr	r3, .L78+52
 1617 0046 1860     		str	r0, [r3]
 286:Core/Src/app_freertos.c **** 
 1618              		.loc 1 286 3 is_stmt 1 view .LVU453
 286:Core/Src/app_freertos.c **** 
 1619              		.loc 1 286 26 is_stmt 0 view .LVU454
 1620 0048 1F4A     		ldr	r2, .L78+56
 1621 004a 0021     		movs	r1, #0
 1622 004c 1F48     		ldr	r0, .L78+60
 1623 004e FFF7FEFF 		bl	osThreadNew
 1624              	.LVL137:
 286:Core/Src/app_freertos.c **** 
 1625              		.loc 1 286 24 view .LVU455
 1626 0052 1F4B     		ldr	r3, .L78+64
 1627 0054 1860     		str	r0, [r3]
 289:Core/Src/app_freertos.c **** 
 1628              		.loc 1 289 3 is_stmt 1 view .LVU456
 289:Core/Src/app_freertos.c **** 
 1629              		.loc 1 289 23 is_stmt 0 view .LVU457
 1630 0056 1F4A     		ldr	r2, .L78+68
 1631 0058 0021     		movs	r1, #0
 1632 005a 1F48     		ldr	r0, .L78+72
 1633 005c FFF7FEFF 		bl	osThreadNew
 1634              	.LVL138:
 289:Core/Src/app_freertos.c **** 
 1635              		.loc 1 289 21 view .LVU458
 1636 0060 1E4B     		ldr	r3, .L78+76
 1637 0062 1860     		str	r0, [r3]
 292:Core/Src/app_freertos.c **** 
 1638              		.loc 1 292 3 is_stmt 1 view .LVU459
 292:Core/Src/app_freertos.c **** 
 1639              		.loc 1 292 24 is_stmt 0 view .LVU460
 1640 0064 1E4A     		ldr	r2, .L78+80
 1641 0066 0021     		movs	r1, #0
 1642 0068 1E48     		ldr	r0, .L78+84
 1643 006a FFF7FEFF 		bl	osThreadNew
 1644              	.LVL139:
 292:Core/Src/app_freertos.c **** 
 1645              		.loc 1 292 22 view .LVU461
 1646 006e 1E4B     		ldr	r3, .L78+88
 1647 0070 1860     		str	r0, [r3]
 295:Core/Src/app_freertos.c **** 
 1648              		.loc 1 295 3 is_stmt 1 view .LVU462
 295:Core/Src/app_freertos.c **** 
 1649              		.loc 1 295 21 is_stmt 0 view .LVU463
 1650 0072 1E4A     		ldr	r2, .L78+92
 1651 0074 0021     		movs	r1, #0
 1652 0076 1E48     		ldr	r0, .L78+96
 1653 0078 FFF7FEFF 		bl	osThreadNew
 1654              	.LVL140:
 295:Core/Src/app_freertos.c **** 
 1655              		.loc 1 295 19 view .LVU464
ARM GAS  C:\Users\VR\AppData\Local\Temp\ccmmLOSs.s 			page 53


 1656 007c 1D4B     		ldr	r3, .L78+100
 1657 007e 1860     		str	r0, [r3]
 298:Core/Src/app_freertos.c **** 
 1658              		.loc 1 298 3 is_stmt 1 view .LVU465
 298:Core/Src/app_freertos.c **** 
 1659              		.loc 1 298 25 is_stmt 0 view .LVU466
 1660 0080 1D4A     		ldr	r2, .L78+104
 1661 0082 0021     		movs	r1, #0
 1662 0084 1D48     		ldr	r0, .L78+108
 1663 0086 FFF7FEFF 		bl	osThreadNew
 1664              	.LVL141:
 298:Core/Src/app_freertos.c **** 
 1665              		.loc 1 298 23 view .LVU467
 1666 008a 1D4B     		ldr	r3, .L78+112
 1667 008c 1860     		str	r0, [r3]
 308:Core/Src/app_freertos.c **** 
 1668              		.loc 1 308 1 view .LVU468
 1669 008e 08BD     		pop	{r3, pc}
 1670              	.L79:
 1671              		.align	2
 1672              	.L78:
 1673 0090 00000000 		.word	.LANCHOR30
 1674 0094 00000000 		.word	.LANCHOR31
 1675 0098 00000000 		.word	.LANCHOR32
 1676 009c 00000000 		.word	StartDefaultTask
 1677 00a0 00000000 		.word	.LANCHOR33
 1678 00a4 00000000 		.word	.LANCHOR34
 1679 00a8 00000000 		.word	StartTask02
 1680 00ac 00000000 		.word	.LANCHOR35
 1681 00b0 00000000 		.word	.LANCHOR36
 1682 00b4 00000000 		.word	StartTask03
 1683 00b8 00000000 		.word	.LANCHOR37
 1684 00bc 00000000 		.word	.LANCHOR38
 1685 00c0 00000000 		.word	StartTask04
 1686 00c4 00000000 		.word	.LANCHOR0
 1687 00c8 00000000 		.word	.LANCHOR39
 1688 00cc 00000000 		.word	StartTask06
 1689 00d0 00000000 		.word	.LANCHOR40
 1690 00d4 00000000 		.word	.LANCHOR41
 1691 00d8 00000000 		.word	StartTask09
 1692 00dc 00000000 		.word	.LANCHOR42
 1693 00e0 00000000 		.word	.LANCHOR43
 1694 00e4 00000000 		.word	StartTask10
 1695 00e8 00000000 		.word	.LANCHOR29
 1696 00ec 00000000 		.word	.LANCHOR44
 1697 00f0 00000000 		.word	StartTask05
 1698 00f4 00000000 		.word	.LANCHOR45
 1699 00f8 00000000 		.word	.LANCHOR46
 1700 00fc 00000000 		.word	StartTask01
 1701 0100 00000000 		.word	.LANCHOR1
 1702              		.cfi_endproc
 1703              	.LFE140:
 1705              		.global	__aeabi_dmul
 1706              		.global	__aeabi_d2f
 1707              		.section	.text.steps_to_rads,"ax",%progbits
 1708              		.align	1
 1709              		.global	steps_to_rads
ARM GAS  C:\Users\VR\AppData\Local\Temp\ccmmLOSs.s 			page 54


 1710              		.syntax unified
 1711              		.thumb
 1712              		.thumb_func
 1714              	steps_to_rads:
 1715              	.LVL142:
 1716              	.LFB154:
 847:Core/Src/app_freertos.c **** 
 848:Core/Src/app_freertos.c **** 
 849:Core/Src/app_freertos.c **** float steps_to_rads(int32_t steps)
 850:Core/Src/app_freertos.c **** {
 1717              		.loc 1 850 1 is_stmt 1 view -0
 1718              		.cfi_startproc
 1719              		@ args = 0, pretend = 0, frame = 0
 1720              		@ frame_needed = 0, uses_anonymous_args = 0
 1721              		.loc 1 850 1 is_stmt 0 view .LVU470
 1722 0000 08B5     		push	{r3, lr}
 1723              	.LCFI13:
 1724              		.cfi_def_cfa_offset 8
 1725              		.cfi_offset 3, -8
 1726              		.cfi_offset 14, -4
 1727 0002 07EE100A 		vmov	s14, r0	@ int
 851:Core/Src/app_freertos.c **** 	float rads = 0;
 1728              		.loc 1 851 2 is_stmt 1 view .LVU471
 1729              	.LVL143:
 852:Core/Src/app_freertos.c **** 	rads = ((float)steps / (float)jc.full_steps) * (M_PI * 2);
 1730              		.loc 1 852 2 view .LVU472
 1731              		.loc 1 852 10 is_stmt 0 view .LVU473
 1732 0006 B8EEC77A 		vcvt.f32.s32	s14, s14
 1733              		.loc 1 852 34 view .LVU474
 1734 000a 0D4B     		ldr	r3, .L82+8
 1735 000c D3ED027A 		vldr.32	s15, [r3, #8]	@ int
 1736              		.loc 1 852 25 view .LVU475
 1737 0010 F8EE677A 		vcvt.f32.u32	s15, s15
 1738              		.loc 1 852 23 view .LVU476
 1739 0014 C7EE277A 		vdiv.f32	s15, s14, s15
 1740 0018 17EE900A 		vmov	r0, s15
 1741              	.LVL144:
 1742              		.loc 1 852 23 view .LVU477
 1743 001c FFF7FEFF 		bl	__aeabi_f2d
 1744              	.LVL145:
 1745              		.loc 1 852 47 view .LVU478
 1746 0020 05A3     		adr	r3, .L82
 1747 0022 D3E90023 		ldrd	r2, [r3]
 1748 0026 FFF7FEFF 		bl	__aeabi_dmul
 1749              	.LVL146:
 1750              		.loc 1 852 7 view .LVU479
 1751 002a FFF7FEFF 		bl	__aeabi_d2f
 1752              	.LVL147:
 853:Core/Src/app_freertos.c **** 	return rads;
 1753              		.loc 1 853 2 is_stmt 1 view .LVU480
 854:Core/Src/app_freertos.c **** }
 1754              		.loc 1 854 1 is_stmt 0 view .LVU481
 1755 002e 00EE100A 		vmov	s0, r0
 1756 0032 08BD     		pop	{r3, pc}
 1757              	.L83:
 1758 0034 AFF30080 		.align	3
 1759              	.L82:
ARM GAS  C:\Users\VR\AppData\Local\Temp\ccmmLOSs.s 			page 55


 1760 0038 182D4454 		.word	1413754136
 1761 003c FB211940 		.word	1075388923
 1762 0040 00000000 		.word	jc
 1763              		.cfi_endproc
 1764              	.LFE154:
 1766              		.section	.text.StartTask05,"ax",%progbits
 1767              		.align	1
 1768              		.global	StartTask05
 1769              		.syntax unified
 1770              		.thumb
 1771              		.thumb_func
 1773              	StartTask05:
 1774              	.LFB148:
 644:Core/Src/app_freertos.c ****   /* USER CODE BEGIN StartTask05 */
 1775              		.loc 1 644 1 is_stmt 1 view -0
 1776              		.cfi_startproc
 1777              		@ Volatile: function does not return.
 1778              		@ args = 0, pretend = 0, frame = 0
 1779              		@ frame_needed = 0, uses_anonymous_args = 0
 1780              	.LVL148:
 644:Core/Src/app_freertos.c ****   /* USER CODE BEGIN StartTask05 */
 1781              		.loc 1 644 1 is_stmt 0 view .LVU483
 1782 0000 08B5     		push	{r3, lr}
 1783              	.LCFI14:
 1784              		.cfi_def_cfa_offset 8
 1785              		.cfi_offset 3, -8
 1786              		.cfi_offset 14, -4
 1787              	.LVL149:
 1788              	.L85:
 648:Core/Src/app_freertos.c ****   {
 1789              		.loc 1 648 3 is_stmt 1 discriminator 1 view .LVU484
 650:Core/Src/app_freertos.c **** 	vel = steps_to_rads(tmc5160_velocity_read());
 1790              		.loc 1 650 2 discriminator 1 view .LVU485
 650:Core/Src/app_freertos.c **** 	vel = steps_to_rads(tmc5160_velocity_read());
 1791              		.loc 1 650 10 is_stmt 0 discriminator 1 view .LVU486
 1792 0002 FFF7FEFF 		bl	tmc5160_position_read
 1793              	.LVL150:
 1794 0006 FFF7FEFF 		bl	steps_to_rads
 1795              	.LVL151:
 650:Core/Src/app_freertos.c **** 	vel = steps_to_rads(tmc5160_velocity_read());
 1796              		.loc 1 650 8 discriminator 1 view .LVU487
 1797 000a 074B     		ldr	r3, .L87
 1798 000c 83ED000A 		vstr.32	s0, [r3]
 651:Core/Src/app_freertos.c ****     osDelay(20);
 1799              		.loc 1 651 2 is_stmt 1 discriminator 1 view .LVU488
 651:Core/Src/app_freertos.c ****     osDelay(20);
 1800              		.loc 1 651 8 is_stmt 0 discriminator 1 view .LVU489
 1801 0010 FFF7FEFF 		bl	tmc5160_velocity_read
 1802              	.LVL152:
 1803 0014 FFF7FEFF 		bl	steps_to_rads
 1804              	.LVL153:
 651:Core/Src/app_freertos.c ****     osDelay(20);
 1805              		.loc 1 651 6 discriminator 1 view .LVU490
 1806 0018 044B     		ldr	r3, .L87+4
 1807 001a 83ED000A 		vstr.32	s0, [r3]
 652:Core/Src/app_freertos.c ****   }
 1808              		.loc 1 652 5 is_stmt 1 discriminator 1 view .LVU491
ARM GAS  C:\Users\VR\AppData\Local\Temp\ccmmLOSs.s 			page 56


 1809 001e 1420     		movs	r0, #20
 1810 0020 FFF7FEFF 		bl	osDelay
 1811              	.LVL154:
 648:Core/Src/app_freertos.c ****   {
 1812              		.loc 1 648 3 discriminator 1 view .LVU492
 1813 0024 EDE7     		b	.L85
 1814              	.L88:
 1815 0026 00BF     		.align	2
 1816              	.L87:
 1817 0028 00000000 		.word	.LANCHOR26
 1818 002c 00000000 		.word	.LANCHOR27
 1819              		.cfi_endproc
 1820              	.LFE148:
 1822              		.global	__aeabi_ddiv
 1823              		.global	__aeabi_d2iz
 1824              		.section	.text.rad_to_steps,"ax",%progbits
 1825              		.align	1
 1826              		.global	rad_to_steps
 1827              		.syntax unified
 1828              		.thumb
 1829              		.thumb_func
 1831              	rad_to_steps:
 1832              	.LVL155:
 1833              	.LFB155:
 855:Core/Src/app_freertos.c **** 
 856:Core/Src/app_freertos.c **** int32_t rad_to_steps(float rads)
 857:Core/Src/app_freertos.c **** {
 1834              		.loc 1 857 1 view -0
 1835              		.cfi_startproc
 1836              		@ args = 0, pretend = 0, frame = 0
 1837              		@ frame_needed = 0, uses_anonymous_args = 0
 1838              		.loc 1 857 1 is_stmt 0 view .LVU494
 1839 0000 08B5     		push	{r3, lr}
 1840              	.LCFI15:
 1841              		.cfi_def_cfa_offset 8
 1842              		.cfi_offset 3, -8
 1843              		.cfi_offset 14, -4
 858:Core/Src/app_freertos.c **** 	int32_t steps = 0;
 1844              		.loc 1 858 2 is_stmt 1 view .LVU495
 1845              	.LVL156:
 859:Core/Src/app_freertos.c **** 	steps = (int32_t)((jc.full_steps * rads)/(M_PI * 2));
 1846              		.loc 1 859 2 view .LVU496
 1847              		.loc 1 859 23 is_stmt 0 view .LVU497
 1848 0002 0B4B     		ldr	r3, .L91+8
 1849 0004 D3ED027A 		vldr.32	s15, [r3, #8]	@ int
 1850              		.loc 1 859 35 view .LVU498
 1851 0008 F8EE677A 		vcvt.f32.u32	s15, s15
 1852 000c 67EE807A 		vmul.f32	s15, s15, s0
 1853 0010 17EE900A 		vmov	r0, s15
 1854 0014 FFF7FEFF 		bl	__aeabi_f2d
 1855              	.LVL157:
 1856              		.loc 1 859 42 view .LVU499
 1857 0018 03A3     		adr	r3, .L91
 1858 001a D3E90023 		ldrd	r2, [r3]
 1859 001e FFF7FEFF 		bl	__aeabi_ddiv
 1860              	.LVL158:
 1861              		.loc 1 859 8 view .LVU500
ARM GAS  C:\Users\VR\AppData\Local\Temp\ccmmLOSs.s 			page 57


 1862 0022 FFF7FEFF 		bl	__aeabi_d2iz
 1863              	.LVL159:
 860:Core/Src/app_freertos.c **** 	return steps;
 1864              		.loc 1 860 2 is_stmt 1 view .LVU501
 861:Core/Src/app_freertos.c **** }
 1865              		.loc 1 861 1 is_stmt 0 view .LVU502
 1866 0026 08BD     		pop	{r3, pc}
 1867              	.L92:
 1868              		.align	3
 1869              	.L91:
 1870 0028 182D4454 		.word	1413754136
 1871 002c FB211940 		.word	1075388923
 1872 0030 00000000 		.word	jc
 1873              		.cfi_endproc
 1874              	.LFE155:
 1876              		.global	__aeabi_i2d
 1877              		.section	.text.jc_sub_cb,"ax",%progbits
 1878              		.align	1
 1879              		.global	jc_sub_cb
 1880              		.syntax unified
 1881              		.thumb
 1882              		.thumb_func
 1884              	jc_sub_cb:
 1885              	.LVL160:
 1886              	.LFB150:
 693:Core/Src/app_freertos.c **** 	// Cast messages to expected types
 1887              		.loc 1 693 1 is_stmt 1 view -0
 1888              		.cfi_startproc
 1889              		@ args = 0, pretend = 0, frame = 0
 1890              		@ frame_needed = 0, uses_anonymous_args = 0
 693:Core/Src/app_freertos.c **** 	// Cast messages to expected types
 1891              		.loc 1 693 1 is_stmt 0 view .LVU504
 1892 0000 2DE9F041 		push	{r4, r5, r6, r7, r8, lr}
 1893              	.LCFI16:
 1894              		.cfi_def_cfa_offset 24
 1895              		.cfi_offset 4, -24
 1896              		.cfi_offset 5, -20
 1897              		.cfi_offset 6, -16
 1898              		.cfi_offset 7, -12
 1899              		.cfi_offset 8, -8
 1900              		.cfi_offset 14, -4
 1901 0004 2DED048B 		vpush.64	{d8, d9}
 1902              	.LCFI17:
 1903              		.cfi_def_cfa_offset 40
 1904              		.cfi_offset 80, -40
 1905              		.cfi_offset 81, -36
 1906              		.cfi_offset 82, -32
 1907              		.cfi_offset 83, -28
 1908 0008 0446     		mov	r4, r0
 695:Core/Src/app_freertos.c **** 
 1909              		.loc 1 695 2 is_stmt 1 view .LVU505
 1910              	.LVL161:
 697:Core/Src/app_freertos.c **** 	float pos = clamp_value_noref(jc.lower_limit_ticks, rad_to_steps(js_in->position.data[0]), jc.uppe
 1911              		.loc 1 697 2 view .LVU506
 697:Core/Src/app_freertos.c **** 	float pos = clamp_value_noref(jc.lower_limit_ticks, rad_to_steps(js_in->position.data[0]), jc.uppe
 1912              		.loc 1 697 51 is_stmt 0 view .LVU507
 1913 000a 856B     		ldr	r5, [r0, #56]
ARM GAS  C:\Users\VR\AppData\Local\Temp\ccmmLOSs.s 			page 58


 697:Core/Src/app_freertos.c **** 	float pos = clamp_value_noref(jc.lower_limit_ticks, rad_to_steps(js_in->position.data[0]), jc.uppe
 1914              		.loc 1 697 17 view .LVU508
 1915 000c 344B     		ldr	r3, .L95+8
 1916 000e 1869     		ldr	r0, [r3, #16]	@ float
 1917              	.LVL162:
 697:Core/Src/app_freertos.c **** 	float pos = clamp_value_noref(jc.lower_limit_ticks, rad_to_steps(js_in->position.data[0]), jc.uppe
 1918              		.loc 1 697 17 view .LVU509
 1919 0010 FFF7FEFF 		bl	__aeabi_f2d
 1920              	.LVL163:
 1921 0014 41EC120B 		vmov	d2, r0, r1
 1922 0018 95ED001B 		vldr.64	d1, [r5]
 1923 001c 9FED2E0B 		vldr.64	d0, .L95
 1924 0020 FFF7FEFF 		bl	clamp_value_noref
 1925              	.LVL164:
 1926 0024 51EC100B 		vmov	r0, r1, d0
 697:Core/Src/app_freertos.c **** 	float pos = clamp_value_noref(jc.lower_limit_ticks, rad_to_steps(js_in->position.data[0]), jc.uppe
 1927              		.loc 1 697 8 view .LVU510
 1928 0028 FFF7FEFF 		bl	__aeabi_d2f
 1929              	.LVL165:
 1930 002c 0546     		mov	r5, r0	@ float
 1931              	.LVL166:
 698:Core/Src/app_freertos.c **** 
 1932              		.loc 1 698 2 is_stmt 1 view .LVU511
 698:Core/Src/app_freertos.c **** 
 1933              		.loc 1 698 34 is_stmt 0 view .LVU512
 1934 002e 2D4E     		ldr	r6, .L95+12
 1935 0030 7769     		ldr	r7, [r6, #20]
 698:Core/Src/app_freertos.c **** 
 1936              		.loc 1 698 82 view .LVU513
 1937 0032 236A     		ldr	r3, [r4, #32]
 698:Core/Src/app_freertos.c **** 
 1938              		.loc 1 698 54 view .LVU514
 1939 0034 D3E90001 		ldrd	r0, [r3]
 1940              	.LVL167:
 698:Core/Src/app_freertos.c **** 
 1941              		.loc 1 698 54 view .LVU515
 1942 0038 FFF7FEFF 		bl	__aeabi_d2f
 1943              	.LVL168:
 1944 003c 00EE100A 		vmov	s0, r0
 1945 0040 FFF7FEFF 		bl	rad_to_steps
 1946              	.LVL169:
 1947 0044 8046     		mov	r8, r0
 698:Core/Src/app_freertos.c **** 
 1948              		.loc 1 698 14 view .LVU516
 1949 0046 3069     		ldr	r0, [r6, #16]
 1950 0048 FFF7FEFF 		bl	__aeabi_i2d
 1951              	.LVL170:
 1952 004c 41EC180B 		vmov	d8, r0, r1
 1953 0050 4046     		mov	r0, r8
 1954 0052 FFF7FEFF 		bl	__aeabi_i2d
 1955              	.LVL171:
 1956 0056 41EC190B 		vmov	d9, r0, r1
 1957 005a 3846     		mov	r0, r7
 1958 005c FFF7FEFF 		bl	__aeabi_i2d
 1959              	.LVL172:
 1960 0060 B0EE482A 		vmov.f32	s4, s16
 1961 0064 F0EE682A 		vmov.f32	s5, s17
ARM GAS  C:\Users\VR\AppData\Local\Temp\ccmmLOSs.s 			page 59


 1962 0068 B0EE491A 		vmov.f32	s2, s18
 1963 006c F0EE691A 		vmov.f32	s3, s19
 1964 0070 41EC100B 		vmov	d0, r0, r1
 1965 0074 FFF7FEFF 		bl	clamp_value_noref
 1966              	.LVL173:
 1967 0078 51EC100B 		vmov	r0, r1, d0
 698:Core/Src/app_freertos.c **** 
 1968              		.loc 1 698 8 view .LVU517
 1969 007c FFF7FEFF 		bl	__aeabi_d2f
 1970              	.LVL174:
 1971 0080 08EE100A 		vmov	s16, r0
 1972              	.LVL175:
 700:Core/Src/app_freertos.c **** 	tmc5160_velocity(rad_to_steps(js_in->velocity.data[0]));
 1973              		.loc 1 700 2 is_stmt 1 view .LVU518
 1974 0084 706A     		ldr	r0, [r6, #36]	@ float
 1975              	.LVL176:
 700:Core/Src/app_freertos.c **** 	tmc5160_velocity(rad_to_steps(js_in->velocity.data[0]));
 1976              		.loc 1 700 2 is_stmt 0 view .LVU519
 1977 0086 FFF7FEFF 		bl	__aeabi_f2d
 1978              	.LVL177:
 1979 008a 41EC190B 		vmov	d9, r0, r1
 1980 008e 2846     		mov	r0, r5	@ float
 1981 0090 FFF7FEFF 		bl	__aeabi_f2d
 1982              	.LVL178:
 1983 0094 B0EE491A 		vmov.f32	s2, s18
 1984 0098 F0EE691A 		vmov.f32	s3, s19
 1985 009c 41EC100B 		vmov	d0, r0, r1
 1986 00a0 FFF7FEFF 		bl	tmc5160_effort
 1987              	.LVL179:
 701:Core/Src/app_freertos.c **** 	tmc5160_position(pos);
 1988              		.loc 1 701 2 is_stmt 1 view .LVU520
 701:Core/Src/app_freertos.c **** 	tmc5160_position(pos);
 1989              		.loc 1 701 47 is_stmt 0 view .LVU521
 1990 00a4 E36A     		ldr	r3, [r4, #44]
 701:Core/Src/app_freertos.c **** 	tmc5160_position(pos);
 1991              		.loc 1 701 19 view .LVU522
 1992 00a6 D3E90001 		ldrd	r0, [r3]
 1993 00aa FFF7FEFF 		bl	__aeabi_d2f
 1994              	.LVL180:
 1995 00ae 00EE100A 		vmov	s0, r0
 1996 00b2 FFF7FEFF 		bl	rad_to_steps
 1997              	.LVL181:
 701:Core/Src/app_freertos.c **** 	tmc5160_position(pos);
 1998              		.loc 1 701 2 view .LVU523
 1999 00b6 FFF7FEFF 		bl	tmc5160_velocity
 2000              	.LVL182:
 702:Core/Src/app_freertos.c **** 	state_o_j.RUN = 1;
 2001              		.loc 1 702 2 is_stmt 1 view .LVU524
 2002 00ba FDEEC87A 		vcvt.s32.f32	s15, s16
 2003 00be 17EE900A 		vmov	r0, s15	@ int
 2004 00c2 FFF7FEFF 		bl	tmc5160_position
 2005              	.LVL183:
 703:Core/Src/app_freertos.c **** 	state_o_j.STOP = 0;
 2006              		.loc 1 703 2 view .LVU525
 703:Core/Src/app_freertos.c **** 	state_o_j.STOP = 0;
 2007              		.loc 1 703 16 is_stmt 0 view .LVU526
 2008 00c6 084B     		ldr	r3, .L95+16
ARM GAS  C:\Users\VR\AppData\Local\Temp\ccmmLOSs.s 			page 60


 2009 00c8 0122     		movs	r2, #1
 2010 00ca 9A60     		str	r2, [r3, #8]
 704:Core/Src/app_freertos.c **** }
 2011              		.loc 1 704 2 is_stmt 1 view .LVU527
 704:Core/Src/app_freertos.c **** }
 2012              		.loc 1 704 17 is_stmt 0 view .LVU528
 2013 00cc 0022     		movs	r2, #0
 2014 00ce 5A60     		str	r2, [r3, #4]
 705:Core/Src/app_freertos.c **** 
 2015              		.loc 1 705 1 view .LVU529
 2016 00d0 BDEC048B 		vldm	sp!, {d8-d9}
 2017              	.LCFI18:
 2018              		.cfi_restore 82
 2019              		.cfi_restore 83
 2020              		.cfi_restore 80
 2021              		.cfi_restore 81
 2022              		.cfi_def_cfa_offset 24
 2023              	.LVL184:
 705:Core/Src/app_freertos.c **** 
 2024              		.loc 1 705 1 view .LVU530
 2025 00d4 BDE8F081 		pop	{r4, r5, r6, r7, r8, pc}
 2026              	.LVL185:
 2027              	.L96:
 705:Core/Src/app_freertos.c **** 
 2028              		.loc 1 705 1 view .LVU531
 2029              		.align	3
 2030              	.L95:
 2031 00d8 00000000 		.word	0
 2032 00dc 00000000 		.word	0
 2033 00e0 00000000 		.word	motor_cfg
 2034 00e4 00000000 		.word	jc
 2035 00e8 00000000 		.word	.LANCHOR28
 2036              		.cfi_endproc
 2037              	.LFE150:
 2039              		.global	j_diagnostics
 2040              		.global	state_o_j
 2041              		.global	Calibrate
 2042              		.global	dev_angle
 2043              		.global	QuadEncData
 2044              		.global	AbsEncAngle
 2045              		.global	effort
 2046              		.global	vel
 2047              		.global	angle
 2048              		.global	msg_in
 2049              		.global	msg_out
 2050              		.global	js_in
 2051              		.global	js_out
 2052              		.global	msg
 2053              		.global	diag_service_request_msg
 2054              		.global	diag_service_response_msg
 2055              		.global	command_service_request_msg
 2056              		.global	command_service_response_msg
 2057              		.global	request_msg
 2058              		.global	response_msg
 2059              		.global	diag_service
 2060              		.global	command_service
 2061              		.global	config_service
ARM GAS  C:\Users\VR\AppData\Local\Temp\ccmmLOSs.s 			page 61


 2062              		.global	rc
 2063              		.global	init_options
 2064              		.global	node
 2065              		.global	allocator
 2066              		.global	support
 2067              		.global	diag_service_executor
 2068              		.global	command_service_executor
 2069              		.global	config_executor
 2070              		.global	jc_executor
 2071              		.global	jc_subscriber
 2072              		.global	jc_publisher
 2073              		.global	PublisherSemaphore_attributes
 2074              		.section	.rodata.str1.4,"aMS",%progbits,1
 2075              		.align	2
 2076              	.LC8:
 2077 0000 5075626C 		.ascii	"PublisherSemaphore\000"
 2077      69736865 
 2077      7253656D 
 2077      6170686F 
 2077      726500
 2078              		.global	PublisherSemaphoreControlBlock
 2079              		.global	PublisherSemaphoreHandle
 2080              		.global	calibrateTask_attributes
 2081 0013 00       		.align	2
 2082              	.LC9:
 2083 0014 63616C69 		.ascii	"calibrateTask\000"
 2083      62726174 
 2083      65546173 
 2083      6B00
 2084              		.global	calibrateTaskHandle
 2085              		.global	motorRead_attributes
 2086 0022 0000     		.align	2
 2087              	.LC10:
 2088 0024 6D6F746F 		.ascii	"motorRead\000"
 2088      72526561 
 2088      6400
 2089              		.global	motorReadHandle
 2090              		.global	jcSubscriber_attributes
 2091 002e 0000     		.align	2
 2092              	.LC11:
 2093 0030 6A635375 		.ascii	"jcSubscriber\000"
 2093      62736372 
 2093      69626572 
 2093      00
 2094              		.global	jcSubscriberHandle
 2095              		.global	jcPublisher_attributes
 2096 003d 000000   		.align	2
 2097              	.LC12:
 2098 0040 6A635075 		.ascii	"jcPublisher\000"
 2098      626C6973 
 2098      68657200 
 2099              		.global	jcPublisherHandle
 2100              		.global	commandService_attributes
 2101              		.align	2
 2102              	.LC13:
 2103 004c 636F6D6D 		.ascii	"commandService\000"
 2103      616E6453 
ARM GAS  C:\Users\VR\AppData\Local\Temp\ccmmLOSs.s 			page 62


 2103      65727669 
 2103      636500
 2104              		.global	commandServiceHandle
 2105              		.global	configService_attributes
 2106 005b 00       		.align	2
 2107              	.LC14:
 2108 005c 636F6E66 		.ascii	"configService\000"
 2108      69675365 
 2108      72766963 
 2108      6500
 2109              		.global	configServiceHandle
 2110              		.global	absEncoderRead_attributes
 2111 006a 0000     		.align	2
 2112              	.LC15:
 2113 006c 61627345 		.ascii	"absEncoderRead\000"
 2113      6E636F64 
 2113      65725265 
 2113      616400
 2114              		.global	absEncoderReadHandle
 2115              		.global	quadEncoderRead_attributes
 2116 007b 00       		.align	2
 2117              	.LC16:
 2118 007c 71756164 		.ascii	"quadEncoderRead\000"
 2118      456E636F 
 2118      64657252 
 2118      65616400 
 2119              		.global	quadEncoderReadHandle
 2120              		.global	defaultTask_attributes
 2121              		.align	2
 2122              	.LC17:
 2123 008c 64656661 		.ascii	"defaultTask\000"
 2123      756C7454 
 2123      61736B00 
 2124              		.global	defaultTaskHandle
 2125              		.section	.bss.AbsEncAngle,"aw",%nobits
 2126              		.align	1
 2127              		.set	.LANCHOR25,. + 0
 2130              	AbsEncAngle:
 2131 0000 0000     		.space	2
 2132              		.section	.bss.Calibrate,"aw",%nobits
 2133              		.align	2
 2136              	Calibrate:
 2137 0000 00000000 		.space	4
 2138              		.section	.bss.PublisherSemaphoreControlBlock,"aw",%nobits
 2139              		.align	2
 2142              	PublisherSemaphoreControlBlock:
 2143 0000 00000000 		.space	80
 2143      00000000 
 2143      00000000 
 2143      00000000 
 2143      00000000 
 2144              		.section	.bss.PublisherSemaphoreHandle,"aw",%nobits
 2145              		.align	2
 2146              		.set	.LANCHOR31,. + 0
 2149              	PublisherSemaphoreHandle:
 2150 0000 00000000 		.space	4
 2151              		.section	.bss.QuadEncData,"aw",%nobits
ARM GAS  C:\Users\VR\AppData\Local\Temp\ccmmLOSs.s 			page 63


 2152              		.align	1
 2153              		.set	.LANCHOR24,. + 0
 2156              	QuadEncData:
 2157 0000 0000     		.space	2
 2158              		.section	.bss.absEncoderReadHandle,"aw",%nobits
 2159              		.align	2
 2160              		.set	.LANCHOR37,. + 0
 2163              	absEncoderReadHandle:
 2164 0000 00000000 		.space	4
 2165              		.section	.bss.allocator,"aw",%nobits
 2166              		.align	2
 2167              		.set	.LANCHOR2,. + 0
 2170              	allocator:
 2171 0000 00000000 		.space	20
 2171      00000000 
 2171      00000000 
 2171      00000000 
 2171      00000000 
 2172              		.section	.bss.angle,"aw",%nobits
 2173              		.align	2
 2174              		.set	.LANCHOR26,. + 0
 2177              	angle:
 2178 0000 00000000 		.space	4
 2179              		.section	.bss.calibrateTaskHandle,"aw",%nobits
 2180              		.align	2
 2181              		.set	.LANCHOR1,. + 0
 2184              	calibrateTaskHandle:
 2185 0000 00000000 		.space	4
 2186              		.section	.bss.commandServiceHandle,"aw",%nobits
 2187              		.align	2
 2188              		.set	.LANCHOR40,. + 0
 2191              	commandServiceHandle:
 2192 0000 00000000 		.space	4
 2193              		.section	.bss.command_service,"aw",%nobits
 2194              		.align	2
 2195              		.set	.LANCHOR17,. + 0
 2198              	command_service:
 2199 0000 00000000 		.space	4
 2200              		.section	.bss.command_service_executor,"aw",%nobits
 2201              		.align	3
 2202              		.set	.LANCHOR16,. + 0
 2205              	command_service_executor:
 2206 0000 00000000 		.space	136
 2206      00000000 
 2206      00000000 
 2206      00000000 
 2206      00000000 
 2207              		.section	.bss.command_service_request_msg,"aw",%nobits
 2208              		.align	2
 2209              		.set	.LANCHOR19,. + 0
 2212              	command_service_request_msg:
 2213 0000 00000000 		.space	16
 2213      00000000 
 2213      00000000 
 2213      00000000 
 2214              		.section	.bss.command_service_response_msg,"aw",%nobits
 2215              		.align	2
ARM GAS  C:\Users\VR\AppData\Local\Temp\ccmmLOSs.s 			page 64


 2216              		.set	.LANCHOR18,. + 0
 2219              	command_service_response_msg:
 2220 0000 00000000 		.space	8
 2220      00000000 
 2221              		.section	.bss.configServiceHandle,"aw",%nobits
 2222              		.align	2
 2223              		.set	.LANCHOR0,. + 0
 2226              	configServiceHandle:
 2227 0000 00000000 		.space	4
 2228              		.section	.bss.config_executor,"aw",%nobits
 2229              		.align	3
 2230              		.set	.LANCHOR12,. + 0
 2233              	config_executor:
 2234 0000 00000000 		.space	136
 2234      00000000 
 2234      00000000 
 2234      00000000 
 2234      00000000 
 2235              		.section	.bss.config_service,"aw",%nobits
 2236              		.align	2
 2237              		.set	.LANCHOR13,. + 0
 2240              	config_service:
 2241 0000 00000000 		.space	4
 2242              		.section	.bss.defaultTaskHandle,"aw",%nobits
 2243              		.align	2
 2244              		.set	.LANCHOR33,. + 0
 2247              	defaultTaskHandle:
 2248 0000 00000000 		.space	4
 2249              		.section	.bss.dev_angle,"aw",%nobits
 2250              		.align	2
 2253              	dev_angle:
 2254 0000 00000000 		.space	4
 2255              		.section	.bss.diag_service,"aw",%nobits
 2256              		.align	2
 2257              		.set	.LANCHOR21,. + 0
 2260              	diag_service:
 2261 0000 00000000 		.space	4
 2262              		.section	.bss.diag_service_executor,"aw",%nobits
 2263              		.align	3
 2264              		.set	.LANCHOR20,. + 0
 2267              	diag_service_executor:
 2268 0000 00000000 		.space	136
 2268      00000000 
 2268      00000000 
 2268      00000000 
 2268      00000000 
 2269              		.section	.bss.diag_service_request_msg,"aw",%nobits
 2270              		.align	2
 2271              		.set	.LANCHOR23,. + 0
 2274              	diag_service_request_msg:
 2275 0000 00       		.space	1
 2276              		.section	.bss.diag_service_response_msg,"aw",%nobits
 2277              		.align	2
 2278              		.set	.LANCHOR22,. + 0
 2281              	diag_service_response_msg:
 2282 0000 00000000 		.space	8
 2282      00000000 
ARM GAS  C:\Users\VR\AppData\Local\Temp\ccmmLOSs.s 			page 65


 2283              		.section	.bss.effort,"aw",%nobits
 2284              		.align	2
 2287              	effort:
 2288 0000 00000000 		.space	4
 2289              		.section	.bss.init_options,"aw",%nobits
 2290              		.align	2
 2291              		.set	.LANCHOR3,. + 0
 2294              	init_options:
 2295 0000 00000000 		.space	4
 2296              		.section	.bss.j_diagnostics,"aw",%nobits
 2297              		.align	2
 2300              	j_diagnostics:
 2301 0000 00000000 		.space	16
 2301      00000000 
 2301      00000000 
 2301      00000000 
 2302              		.section	.bss.jcPublisherHandle,"aw",%nobits
 2303              		.align	2
 2304              		.set	.LANCHOR42,. + 0
 2307              	jcPublisherHandle:
 2308 0000 00000000 		.space	4
 2309              		.section	.bss.jcSubscriberHandle,"aw",%nobits
 2310              		.align	2
 2311              		.set	.LANCHOR29,. + 0
 2314              	jcSubscriberHandle:
 2315 0000 00000000 		.space	4
 2316              		.section	.bss.jc_executor,"aw",%nobits
 2317              		.align	3
 2318              		.set	.LANCHOR11,. + 0
 2321              	jc_executor:
 2322 0000 00000000 		.space	136
 2322      00000000 
 2322      00000000 
 2322      00000000 
 2322      00000000 
 2323              		.section	.bss.jc_publisher,"aw",%nobits
 2324              		.align	2
 2325              		.set	.LANCHOR7,. + 0
 2328              	jc_publisher:
 2329 0000 00000000 		.space	4
 2330              		.section	.bss.jc_subscriber,"aw",%nobits
 2331              		.align	2
 2332              		.set	.LANCHOR9,. + 0
 2335              	jc_subscriber:
 2336 0000 00000000 		.space	4
 2337              		.section	.bss.js_in,"aw",%nobits
 2338              		.align	2
 2339              		.set	.LANCHOR8,. + 0
 2342              	js_in:
 2343 0000 00000000 		.space	68
 2343      00000000 
 2343      00000000 
 2343      00000000 
 2343      00000000 
 2344              		.section	.bss.js_out,"aw",%nobits
 2345              		.align	2
 2346              		.set	.LANCHOR6,. + 0
ARM GAS  C:\Users\VR\AppData\Local\Temp\ccmmLOSs.s 			page 66


 2349              	js_out:
 2350 0000 00000000 		.space	68
 2350      00000000 
 2350      00000000 
 2350      00000000 
 2350      00000000 
 2351              		.section	.bss.motorReadHandle,"aw",%nobits
 2352              		.align	2
 2353              		.set	.LANCHOR45,. + 0
 2356              	motorReadHandle:
 2357 0000 00000000 		.space	4
 2358              		.section	.bss.msg,"aw",%nobits
 2359              		.align	2
 2362              	msg:
 2363 0000 00000000 		.space	12
 2363      00000000 
 2363      00000000 
 2364              		.section	.bss.msg_in,"aw",%nobits
 2365              		.align	2
 2368              	msg_in:
 2369 0000 00000000 		.space	4
 2370              		.section	.bss.msg_out,"aw",%nobits
 2371              		.align	2
 2374              	msg_out:
 2375 0000 00000000 		.space	4
 2376              		.section	.bss.node,"aw",%nobits
 2377              		.align	2
 2378              		.set	.LANCHOR5,. + 0
 2381              	node:
 2382 0000 00000000 		.space	8
 2382      00000000 
 2383              		.section	.bss.quadEncoderReadHandle,"aw",%nobits
 2384              		.align	2
 2385              		.set	.LANCHOR35,. + 0
 2388              	quadEncoderReadHandle:
 2389 0000 00000000 		.space	4
 2390              		.section	.bss.rc,"aw",%nobits
 2391              		.align	2
 2392              		.set	.LANCHOR10,. + 0
 2395              	rc:
 2396 0000 00000000 		.space	4
 2397              		.section	.bss.request_msg,"aw",%nobits
 2398              		.align	2
 2399              		.set	.LANCHOR15,. + 0
 2402              	request_msg:
 2403 0000 00000000 		.space	40
 2403      00000000 
 2403      00000000 
 2403      00000000 
 2403      00000000 
 2404              		.section	.bss.response_msg,"aw",%nobits
 2405              		.align	2
 2406              		.set	.LANCHOR14,. + 0
 2409              	response_msg:
 2410 0000 00000000 		.space	36
 2410      00000000 
 2410      00000000 
ARM GAS  C:\Users\VR\AppData\Local\Temp\ccmmLOSs.s 			page 67


 2410      00000000 
 2410      00000000 
 2411              		.section	.bss.state_o_j,"aw",%nobits
 2412              		.align	2
 2413              		.set	.LANCHOR28,. + 0
 2416              	state_o_j:
 2417 0000 00000000 		.space	32
 2417      00000000 
 2417      00000000 
 2417      00000000 
 2417      00000000 
 2418              		.section	.bss.support,"aw",%nobits
 2419              		.align	2
 2420              		.set	.LANCHOR4,. + 0
 2423              	support:
 2424 0000 00000000 		.space	52
 2424      00000000 
 2424      00000000 
 2424      00000000 
 2424      00000000 
 2425              		.section	.bss.vel,"aw",%nobits
 2426              		.align	2
 2427              		.set	.LANCHOR27,. + 0
 2430              	vel:
 2431 0000 00000000 		.space	4
 2432              		.section	.rodata.PublisherSemaphore_attributes,"a"
 2433              		.align	2
 2434              		.set	.LANCHOR30,. + 0
 2437              	PublisherSemaphore_attributes:
 2438 0000 00000000 		.word	.LC8
 2439 0004 00000000 		.space	4
 2440 0008 00000000 		.word	PublisherSemaphoreControlBlock
 2441 000c 50000000 		.word	80
 2442              		.section	.rodata.absEncoderRead_attributes,"a"
 2443              		.align	2
 2444              		.set	.LANCHOR36,. + 0
 2447              	absEncoderRead_attributes:
 2448 0000 6C000000 		.word	.LC15
 2449 0004 00000000 		.space	16
 2449      00000000 
 2449      00000000 
 2449      00000000 
 2450 0014 00010000 		.word	256
 2451 0018 08000000 		.word	8
 2452 001c 00000000 		.space	8
 2452      00000000 
 2453              		.section	.rodata.calibrateTask_attributes,"a"
 2454              		.align	2
 2455              		.set	.LANCHOR46,. + 0
 2458              	calibrateTask_attributes:
 2459 0000 14000000 		.word	.LC9
 2460 0004 00000000 		.space	16
 2460      00000000 
 2460      00000000 
 2460      00000000 
 2461 0014 00010000 		.word	256
 2462 0018 08000000 		.word	8
ARM GAS  C:\Users\VR\AppData\Local\Temp\ccmmLOSs.s 			page 68


 2463 001c 00000000 		.space	8
 2463      00000000 
 2464              		.section	.rodata.commandService_attributes,"a"
 2465              		.align	2
 2466              		.set	.LANCHOR39,. + 0
 2469              	commandService_attributes:
 2470 0000 4C000000 		.word	.LC13
 2471 0004 00000000 		.space	16
 2471      00000000 
 2471      00000000 
 2471      00000000 
 2472 0014 D0070000 		.word	2000
 2473 0018 18000000 		.word	24
 2474 001c 00000000 		.space	8
 2474      00000000 
 2475              		.section	.rodata.configService_attributes,"a"
 2476              		.align	2
 2477              		.set	.LANCHOR38,. + 0
 2480              	configService_attributes:
 2481 0000 5C000000 		.word	.LC14
 2482 0004 00000000 		.space	16
 2482      00000000 
 2482      00000000 
 2482      00000000 
 2483 0014 D0070000 		.word	2000
 2484 0018 18000000 		.word	24
 2485 001c 00000000 		.space	8
 2485      00000000 
 2486              		.section	.rodata.defaultTask_attributes,"a"
 2487              		.align	2
 2488              		.set	.LANCHOR32,. + 0
 2491              	defaultTask_attributes:
 2492 0000 8C000000 		.word	.LC17
 2493 0004 00000000 		.space	16
 2493      00000000 
 2493      00000000 
 2493      00000000 
 2494 0014 E02E0000 		.word	12000
 2495 0018 18000000 		.word	24
 2496 001c 00000000 		.space	8
 2496      00000000 
 2497              		.section	.rodata.jcPublisher_attributes,"a"
 2498              		.align	2
 2499              		.set	.LANCHOR41,. + 0
 2502              	jcPublisher_attributes:
 2503 0000 40000000 		.word	.LC12
 2504 0004 00000000 		.space	16
 2504      00000000 
 2504      00000000 
 2504      00000000 
 2505 0014 D0070000 		.word	2000
 2506 0018 08000000 		.word	8
 2507 001c 00000000 		.space	8
 2507      00000000 
 2508              		.section	.rodata.jcSubscriber_attributes,"a"
 2509              		.align	2
 2510              		.set	.LANCHOR43,. + 0
ARM GAS  C:\Users\VR\AppData\Local\Temp\ccmmLOSs.s 			page 69


 2513              	jcSubscriber_attributes:
 2514 0000 30000000 		.word	.LC11
 2515 0004 00000000 		.space	16
 2515      00000000 
 2515      00000000 
 2515      00000000 
 2516 0014 D0070000 		.word	2000
 2517 0018 08000000 		.word	8
 2518 001c 00000000 		.space	8
 2518      00000000 
 2519              		.section	.rodata.motorRead_attributes,"a"
 2520              		.align	2
 2521              		.set	.LANCHOR44,. + 0
 2524              	motorRead_attributes:
 2525 0000 24000000 		.word	.LC10
 2526 0004 00000000 		.space	16
 2526      00000000 
 2526      00000000 
 2526      00000000 
 2527 0014 00010000 		.word	256
 2528 0018 08000000 		.word	8
 2529 001c 00000000 		.space	8
 2529      00000000 
 2530              		.section	.rodata.quadEncoderRead_attributes,"a"
 2531              		.align	2
 2532              		.set	.LANCHOR34,. + 0
 2535              	quadEncoderRead_attributes:
 2536 0000 7C000000 		.word	.LC16
 2537 0004 00000000 		.space	16
 2537      00000000 
 2537      00000000 
 2537      00000000 
 2538 0014 00010000 		.word	256
 2539 0018 08000000 		.word	8
 2540 001c 00000000 		.space	8
 2540      00000000 
 2541              		.text
 2542              	.Letext0:
 2543              		.file 2 "C:\\ST\\STM32CubeIDE_1.8.0\\STM32CubeIDE\\plugins\\com.st.stm32cube.ide.mcu.externaltools
 2544              		.file 3 "C:\\ST\\STM32CubeIDE_1.8.0\\STM32CubeIDE\\plugins\\com.st.stm32cube.ide.mcu.externaltools
 2545              		.file 4 "C:\\ST\\STM32CubeIDE_1.8.0\\STM32CubeIDE\\plugins\\com.st.stm32cube.ide.mcu.externaltools
 2546              		.file 5 "Middlewares/Third_Party/FreeRTOS/Source/portable/GCC/ARM_CM4F/portmacro.h"
 2547              		.file 6 "Middlewares/Third_Party/FreeRTOS/Source/include/FreeRTOS.h"
 2548              		.file 7 "Middlewares/Third_Party/FreeRTOS/Source/include/task.h"
 2549              		.file 8 "Drivers/CMSIS/Device/ST/STM32G4xx/Include/stm32g474xx.h"
 2550              		.file 9 "Drivers/CMSIS/Device/ST/STM32G4xx/Include/stm32g4xx.h"
 2551              		.file 10 "Drivers/STM32G4xx_HAL_Driver/Inc/stm32g4xx_hal_def.h"
 2552              		.file 11 "Drivers/STM32G4xx_HAL_Driver/Inc/stm32g4xx_hal_gpio.h"
 2553              		.file 12 "Drivers/STM32G4xx_HAL_Driver/Inc/stm32g4xx_hal_dma.h"
 2554              		.file 13 "Drivers/STM32G4xx_HAL_Driver/Inc/stm32g4xx_hal_fdcan.h"
 2555              		.file 14 "Drivers/STM32G4xx_HAL_Driver/Inc/stm32g4xx_hal_iwdg.h"
 2556              		.file 15 "Drivers/STM32G4xx_HAL_Driver/Inc/stm32g4xx_hal_tim.h"
 2557              		.file 16 "Middlewares/Third_Party/FreeRTOS/Source/CMSIS_RTOS_V2/cmsis_os2.h"
 2558              		.file 17 "micro_ros_stm32cubemx_utils/microros_static_library/libmicroros/microros_include/rcutils
 2559              		.file 18 "micro_ros_stm32cubemx_utils/microros_static_library/libmicroros/microros_include/rcl/all
 2560              		.file 19 "micro_ros_stm32cubemx_utils/microros_static_library/libmicroros/microros_include/rmw/loc
 2561              		.file 20 "micro_ros_stm32cubemx_utils/microros_static_library/libmicroros/microros_include/rmw/ret
ARM GAS  C:\Users\VR\AppData\Local\Temp\ccmmLOSs.s 			page 70


 2562              		.file 21 "micro_ros_stm32cubemx_utils/microros_static_library/libmicroros/microros_include/rmw/sec
 2563              		.file 22 "micro_ros_stm32cubemx_utils/microros_static_library/libmicroros/microros_include/rmw/ini
 2564              		.file 23 "micro_ros_stm32cubemx_utils/microros_static_library/libmicroros/microros_include/rcutils
 2565              		.file 24 "micro_ros_stm32cubemx_utils/microros_static_library/libmicroros/microros_include/rmw/tim
 2566              		.file 25 "micro_ros_stm32cubemx_utils/microros_static_library/libmicroros/microros_include/rmw/typ
 2567              		.file 26 "micro_ros_stm32cubemx_utils/microros_static_library/libmicroros/microros_include/rcl/typ
 2568              		.file 27 "micro_ros_stm32cubemx_utils/microros_static_library/libmicroros/microros_include/rcl/ini
 2569              		.file 28 "micro_ros_stm32cubemx_utils/microros_static_library/libmicroros/microros_include/rcl/con
 2570              		.file 29 "micro_ros_stm32cubemx_utils/microros_static_library/libmicroros/microros_include/rcl/gua
 2571              		.file 30 "micro_ros_stm32cubemx_utils/microros_static_library/libmicroros/microros_include/rcl/nod
 2572              		.file 31 "micro_ros_stm32cubemx_utils/microros_static_library/libmicroros/microros_include/rosidl_
 2573              		.file 32 "micro_ros_stm32cubemx_utils/microros_static_library/libmicroros/microros_include/rcl/tim
 2574              		.file 33 "micro_ros_stm32cubemx_utils/microros_static_library/libmicroros/microros_include/rcl/pub
 2575              		.file 34 "micro_ros_stm32cubemx_utils/microros_static_library/libmicroros/microros_include/rcl/sub
 2576              		.file 35 "micro_ros_stm32cubemx_utils/microros_static_library/libmicroros/microros_include/rosidl_
 2577              		.file 36 "micro_ros_stm32cubemx_utils/microros_static_library/libmicroros/microros_include/rcl/cli
 2578              		.file 37 "micro_ros_stm32cubemx_utils/microros_static_library/libmicroros/microros_include/rcl/ser
 2579              		.file 38 "micro_ros_stm32cubemx_utils/microros_static_library/libmicroros/microros_include/rmw/qos
 2580              		.file 39 "micro_ros_stm32cubemx_utils/microros_static_library/libmicroros/microros_include/rcl/tim
 2581              		.file 40 "micro_ros_stm32cubemx_utils/microros_static_library/libmicroros/microros_include/rcl/eve
 2582              		.file 41 "micro_ros_stm32cubemx_utils/microros_static_library/libmicroros/microros_include/rcl/wai
 2583              		.file 42 "micro_ros_stm32cubemx_utils/microros_static_library/libmicroros/microros_include/rclc/ty
 2584              		.file 43 "micro_ros_stm32cubemx_utils/microros_static_library/libmicroros/microros_include/unique_
 2585              		.file 44 "micro_ros_stm32cubemx_utils/microros_static_library/libmicroros/microros_include/builtin
 2586              		.file 45 "micro_ros_stm32cubemx_utils/microros_static_library/libmicroros/microros_include/action_
 2587              		.file 46 "micro_ros_stm32cubemx_utils/microros_static_library/libmicroros/microros_include/action_
 2588              		.file 47 "micro_ros_stm32cubemx_utils/microros_static_library/libmicroros/microros_include/rcl_act
 2589              		.file 48 "micro_ros_stm32cubemx_utils/microros_static_library/libmicroros/microros_include/rcl_act
 2590              		.file 49 "micro_ros_stm32cubemx_utils/microros_static_library/libmicroros/microros_include/rcl_act
 2591              		.file 50 "micro_ros_stm32cubemx_utils/microros_static_library/libmicroros/microros_include/rcl_act
 2592              		.file 51 "micro_ros_stm32cubemx_utils/microros_static_library/libmicroros/microros_include/rclc/ac
 2593              		.file 52 "micro_ros_stm32cubemx_utils/microros_static_library/libmicroros/microros_include/rclc/ac
 2594              		.file 53 "micro_ros_stm32cubemx_utils/microros_static_library/libmicroros/microros_include/rclc/ac
 2595              		.file 54 "micro_ros_stm32cubemx_utils/microros_static_library/libmicroros/microros_include/rclc/ex
 2596              		.file 55 "micro_ros_stm32cubemx_utils/microros_static_library/libmicroros/microros_include/rclc/ex
 2597              		.file 56 "Middlewares/Third_Party/FreeRTOS/Source/include/queue.h"
 2598              		.file 57 "Middlewares/Third_Party/FreeRTOS/Source/include/semphr.h"
 2599              		.file 58 "micro_ros_stm32cubemx_utils/microros_static_library/libmicroros/microros_include/uxr/cli
 2600              		.file 59 "micro_ros_stm32cubemx_utils/microros_static_library/libmicroros/microros_include/uxr/cli
 2601              		.file 60 "micro_ros_stm32cubemx_utils/microros_static_library/libmicroros/microros_include/uxr/cli
 2602              		.file 61 "micro_ros_stm32cubemx_utils/microros_static_library/libmicroros/microros_include/uxr/cli
 2603              		.file 62 "micro_ros_stm32cubemx_utils/microros_static_library/libmicroros/microros_include/rosidl_
 2604              		.file 63 "micro_ros_stm32cubemx_utils/microros_static_library/libmicroros/microros_include/rosidl_
 2605              		.file 64 "micro_ros_stm32cubemx_utils/microros_static_library/libmicroros/microros_include/micro_r
 2606              		.file 65 "micro_ros_stm32cubemx_utils/microros_static_library/libmicroros/microros_include/config_
 2607              		.file 66 "micro_ros_stm32cubemx_utils/microros_static_library/libmicroros/microros_include/command
 2608              		.file 67 "micro_ros_stm32cubemx_utils/microros_static_library/libmicroros/microros_include/diag_se
 2609              		.file 68 "micro_ros_stm32cubemx_utils/microros_static_library/libmicroros/microros_include/std_msg
 2610              		.file 69 "micro_ros_stm32cubemx_utils/microros_static_library/libmicroros/microros_include/std_msg
 2611              		.file 70 "micro_ros_stm32cubemx_utils/microros_static_library/libmicroros/microros_include/std_msg
 2612              		.file 71 "micro_ros_stm32cubemx_utils/microros_static_library/libmicroros/microros_include/sensor_
 2613              		.file 72 "Core/Inc/tmc5160.h"
 2614              		.file 73 "Core/Inc/joint_config.h"
 2615              		.file 74 "Core/Inc/state_of_joint.h"
 2616              		.file 75 "Core/Inc/joint_diagnostics.h"
 2617              		.file 76 "Core/Inc/utility.h"
 2618              		.file 77 "Core/Inc/as50xx.h"
ARM GAS  C:\Users\VR\AppData\Local\Temp\ccmmLOSs.s 			page 71


 2619              		.file 78 "micro_ros_stm32cubemx_utils/microros_static_library/libmicroros/microros_include/diag_se
 2620              		.file 79 "micro_ros_stm32cubemx_utils/microros_static_library/libmicroros/microros_include/command
 2621              		.file 80 "micro_ros_stm32cubemx_utils/microros_static_library/libmicroros/microros_include/rclc/se
 2622              		.file 81 "micro_ros_stm32cubemx_utils/microros_static_library/libmicroros/microros_include/config_
 2623              		.file 82 "micro_ros_stm32cubemx_utils/microros_static_library/libmicroros/microros_include/rclc/su
 2624              		.file 83 "micro_ros_stm32cubemx_utils/microros_static_library/libmicroros/microros_include/rclc/pu
 2625              		.file 84 "micro_ros_stm32cubemx_utils/microros_static_library/libmicroros/microros_include/sensor_
 2626              		.file 85 "C:\\ST\\STM32CubeIDE_1.8.0\\STM32CubeIDE\\plugins\\com.st.stm32cube.ide.mcu.externaltool
 2627              		.file 86 "micro_ros_stm32cubemx_utils/microros_static_library/libmicroros/microros_include/rclc/no
 2628              		.file 87 "C:\\ST\\STM32CubeIDE_1.8.0\\STM32CubeIDE\\plugins\\com.st.stm32cube.ide.mcu.externaltool
 2629              		.file 88 "micro_ros_stm32cubemx_utils/microros_static_library/libmicroros/microros_include/rclc/in
 2630              		.file 89 "micro_ros_stm32cubemx_utils/microros_static_library/libmicroros/microros_include/rmw_mic
 2631              		.file 90 "micro_ros_stm32cubemx_utils/microros_static_library/libmicroros/microros_include/rmw_mic
 2632              		.file 91 "<built-in>"
ARM GAS  C:\Users\VR\AppData\Local\Temp\ccmmLOSs.s 			page 72

