ARM GAS  C:\Users\SOROKO~1\AppData\Local\Temp\ccQ20GYb.s 			page 1


   1              		.cpu cortex-m4
   2              		.arch armv7e-m
   3              		.fpu fpv4-sp-d16
   4              		.eabi_attribute 27, 1
   5              		.eabi_attribute 28, 1
   6              		.eabi_attribute 20, 1
   7              		.eabi_attribute 21, 1
   8              		.eabi_attribute 23, 3
   9              		.eabi_attribute 24, 1
  10              		.eabi_attribute 25, 1
  11              		.eabi_attribute 26, 1
  12              		.eabi_attribute 30, 1
  13              		.eabi_attribute 34, 1
  14              		.eabi_attribute 18, 4
  15              		.file	"app_freertos.c"
  16              		.text
  17              	.Ltext0:
  18              		.cfi_sections	.debug_frame
  19              		.section	.rodata.StartDefaultTask.str1.4,"aMS",%progbits,1
  20              		.align	2
  21              	.LC0:
  22 0000 736F6E69 		.ascii	"sonic_node_%d\000"
  22      635F6E6F 
  22      64655F25 
  22      6400
  23 000e 0000     		.align	2
  24              	.LC1:
  25 0010 00       		.ascii	"\000"
  26 0011 000000   		.align	2
  27              	.LC2:
  28 0014 736F6E69 		.ascii	"sonic_pub_%d\000"
  28      635F7075 
  28      625F2564 
  28      00
  29              		.section	.text.StartDefaultTask,"ax",%progbits
  30              		.align	1
  31              		.global	StartDefaultTask
  32              		.syntax unified
  33              		.thumb
  34              		.thumb_func
  36              	StartDefaultTask:
  37              	.LVL0:
  38              	.LFB141:
  39              		.file 1 "Core/Src/app_freertos.c"
   1:Core/Src/app_freertos.c **** /* USER CODE BEGIN Header */
   2:Core/Src/app_freertos.c **** /**
   3:Core/Src/app_freertos.c ****   ******************************************************************************
   4:Core/Src/app_freertos.c ****   * File Name          : app_freertos.c
   5:Core/Src/app_freertos.c ****   * Description        : Code for freertos applications
   6:Core/Src/app_freertos.c ****   ******************************************************************************
   7:Core/Src/app_freertos.c ****   * @attention
   8:Core/Src/app_freertos.c ****   *
   9:Core/Src/app_freertos.c ****   * Copyright (c) 2023 STMicroelectronics.
  10:Core/Src/app_freertos.c ****   * All rights reserved.
  11:Core/Src/app_freertos.c ****   *
  12:Core/Src/app_freertos.c ****   * This software is licensed under terms that can be found in the LICENSE file
  13:Core/Src/app_freertos.c ****   * in the root directory of this software component.
ARM GAS  C:\Users\SOROKO~1\AppData\Local\Temp\ccQ20GYb.s 			page 2


  14:Core/Src/app_freertos.c ****   * If no LICENSE file comes with this software, it is provided AS-IS.
  15:Core/Src/app_freertos.c ****   *
  16:Core/Src/app_freertos.c ****   ******************************************************************************
  17:Core/Src/app_freertos.c ****   */
  18:Core/Src/app_freertos.c **** /* USER CODE END Header */
  19:Core/Src/app_freertos.c **** 
  20:Core/Src/app_freertos.c **** /* Includes ------------------------------------------------------------------*/
  21:Core/Src/app_freertos.c **** #include "FreeRTOS.h"
  22:Core/Src/app_freertos.c **** #include "task.h"
  23:Core/Src/app_freertos.c **** #include "main.h"
  24:Core/Src/app_freertos.c **** #include "cmsis_os.h"
  25:Core/Src/app_freertos.c **** 
  26:Core/Src/app_freertos.c **** /* Private includes ----------------------------------------------------------*/
  27:Core/Src/app_freertos.c **** /* USER CODE BEGIN Includes */
  28:Core/Src/app_freertos.c **** #include <rcl/rcl.h>
  29:Core/Src/app_freertos.c **** #include <rcl/error_handling.h>
  30:Core/Src/app_freertos.c **** #include <rclc/rclc.h>
  31:Core/Src/app_freertos.c **** #include <rclc/executor.h>
  32:Core/Src/app_freertos.c **** #include <uxr/client/transport.h>
  33:Core/Src/app_freertos.c **** #include <rmw_microxrcedds_c/config.h>
  34:Core/Src/app_freertos.c **** #include <rmw_microros/rmw_microros.h>
  35:Core/Src/app_freertos.c **** 
  36:Core/Src/app_freertos.c **** #include <rmw_microros/rmw_microros.h>
  37:Core/Src/app_freertos.c **** 
  38:Core/Src/app_freertos.c **** #include <type_utilities.h>
  39:Core/Src/app_freertos.c **** 
  40:Core/Src/app_freertos.c **** #include <config_service/srv/config_service.h>
  41:Core/Src/app_freertos.c **** #include <command_service/srv/command_service.h>
  42:Core/Src/app_freertos.c **** #include <diag_service/srv/diag_service.h>
  43:Core/Src/app_freertos.c **** #include <std_srvs/srv/empty.h>
  44:Core/Src/app_freertos.c **** 
  45:Core/Src/app_freertos.c **** 
  46:Core/Src/app_freertos.c **** #include <std_msgs/msg/int32.h>
  47:Core/Src/app_freertos.c **** #include <std_msgs/msg/string.h>
  48:Core/Src/app_freertos.c **** 
  49:Core/Src/app_freertos.c **** 
  50:Core/Src/app_freertos.c **** #include <tmc5160.h>
  51:Core/Src/app_freertos.c **** #include <as50xx.h>
  52:Core/Src/app_freertos.c **** #include <at24_eeprom.h>
  53:Core/Src/app_freertos.c **** 
  54:Core/Src/app_freertos.c **** #include <joint_config.h>
  55:Core/Src/app_freertos.c **** #include <state_of_joint.h>
  56:Core/Src/app_freertos.c **** #include <joint_diagnostics.h>
  57:Core/Src/app_freertos.c **** 
  58:Core/Src/app_freertos.c **** #include <math.h>
  59:Core/Src/app_freertos.c **** #include "utility.h"
  60:Core/Src/app_freertos.c **** /* USER CODE END Includes */
  61:Core/Src/app_freertos.c **** 
  62:Core/Src/app_freertos.c **** /* Private typedef -----------------------------------------------------------*/
  63:Core/Src/app_freertos.c **** typedef StaticSemaphore_t osStaticSemaphoreDef_t;
  64:Core/Src/app_freertos.c **** /* USER CODE BEGIN PTD */
  65:Core/Src/app_freertos.c **** 
  66:Core/Src/app_freertos.c **** /* USER CODE END PTD */
  67:Core/Src/app_freertos.c **** 
  68:Core/Src/app_freertos.c **** /* Private define ------------------------------------------------------------*/
  69:Core/Src/app_freertos.c **** /* USER CODE BEGIN PD */
  70:Core/Src/app_freertos.c **** 
ARM GAS  C:\Users\SOROKO~1\AppData\Local\Temp\ccQ20GYb.s 			page 3


  71:Core/Src/app_freertos.c **** /* USER CODE END PD */
  72:Core/Src/app_freertos.c **** 
  73:Core/Src/app_freertos.c **** /* Private macro -------------------------------------------------------------*/
  74:Core/Src/app_freertos.c **** /* USER CODE BEGIN PM */
  75:Core/Src/app_freertos.c **** 
  76:Core/Src/app_freertos.c **** /* USER CODE END PM */
  77:Core/Src/app_freertos.c **** 
  78:Core/Src/app_freertos.c **** /* Private variables ---------------------------------------------------------*/
  79:Core/Src/app_freertos.c **** /* USER CODE BEGIN Variables */
  80:Core/Src/app_freertos.c **** 
  81:Core/Src/app_freertos.c **** 
  82:Core/Src/app_freertos.c **** /* USER CODE END Variables */
  83:Core/Src/app_freertos.c **** /* Definitions for defaultTask */
  84:Core/Src/app_freertos.c **** osThreadId_t defaultTaskHandle;
  85:Core/Src/app_freertos.c **** const osThreadAttr_t defaultTask_attributes = {
  86:Core/Src/app_freertos.c ****   .name = "defaultTask",
  87:Core/Src/app_freertos.c ****   .priority = (osPriority_t) osPriorityNormal,
  88:Core/Src/app_freertos.c ****   .stack_size = 3000 * 4
  89:Core/Src/app_freertos.c **** };
  90:Core/Src/app_freertos.c **** /* Definitions for jcPublisher */
  91:Core/Src/app_freertos.c **** osThreadId_t jcPublisherHandle;
  92:Core/Src/app_freertos.c **** const osThreadAttr_t jcPublisher_attributes = {
  93:Core/Src/app_freertos.c ****   .name = "jcPublisher",
  94:Core/Src/app_freertos.c ****   .priority = (osPriority_t) osPriorityLow,
  95:Core/Src/app_freertos.c ****   .stack_size = 500 * 4
  96:Core/Src/app_freertos.c **** };
  97:Core/Src/app_freertos.c **** /* Definitions for jcSubscriber */
  98:Core/Src/app_freertos.c **** osThreadId_t jcSubscriberHandle;
  99:Core/Src/app_freertos.c **** const osThreadAttr_t jcSubscriber_attributes = {
 100:Core/Src/app_freertos.c ****   .name = "jcSubscriber",
 101:Core/Src/app_freertos.c ****   .priority = (osPriority_t) osPriorityLow,
 102:Core/Src/app_freertos.c ****   .stack_size = 500 * 4
 103:Core/Src/app_freertos.c **** };
 104:Core/Src/app_freertos.c **** /* Definitions for PublisherSemaphore */
 105:Core/Src/app_freertos.c **** osSemaphoreId_t PublisherSemaphoreHandle;
 106:Core/Src/app_freertos.c **** osStaticSemaphoreDef_t PublisherSemaphoreControlBlock;
 107:Core/Src/app_freertos.c **** const osSemaphoreAttr_t PublisherSemaphore_attributes = {
 108:Core/Src/app_freertos.c ****   .name = "PublisherSemaphore",
 109:Core/Src/app_freertos.c ****   .cb_mem = &PublisherSemaphoreControlBlock,
 110:Core/Src/app_freertos.c ****   .cb_size = sizeof(PublisherSemaphoreControlBlock),
 111:Core/Src/app_freertos.c **** };
 112:Core/Src/app_freertos.c **** 
 113:Core/Src/app_freertos.c **** /* Private function prototypes -----------------------------------------------*/
 114:Core/Src/app_freertos.c **** /* USER CODE BEGIN FunctionPrototypes */
 115:Core/Src/app_freertos.c **** void config_init();
 116:Core/Src/app_freertos.c **** void jc_sub_cb(const void * msg_input);
 117:Core/Src/app_freertos.c **** double steps_to_rads(int32_t steps);
 118:Core/Src/app_freertos.c **** int32_t rad_to_steps(double rads);
 119:Core/Src/app_freertos.c **** 
 120:Core/Src/app_freertos.c **** void config_service_callback(const void * request_msg, void * response_msg);
 121:Core/Src/app_freertos.c **** void command_service_callback(const void * request_msg, void * response_msg);
 122:Core/Src/app_freertos.c **** void diag_service_callback(const void * request_msg, void * response_msg);
 123:Core/Src/app_freertos.c **** 
 124:Core/Src/app_freertos.c **** bool cubemx_transport_open(struct uxrCustomTransport * transport);
 125:Core/Src/app_freertos.c **** bool cubemx_transport_close(struct uxrCustomTransport * transport);
 126:Core/Src/app_freertos.c **** size_t cubemx_transport_write(struct uxrCustomTransport* transport, const uint8_t * buf, size_t len
 127:Core/Src/app_freertos.c **** size_t cubemx_transport_read(struct uxrCustomTransport* transport, uint8_t* buf, size_t len, int ti
ARM GAS  C:\Users\SOROKO~1\AppData\Local\Temp\ccQ20GYb.s 			page 4


 128:Core/Src/app_freertos.c **** 
 129:Core/Src/app_freertos.c **** void * microros_allocate(size_t size, void * state);
 130:Core/Src/app_freertos.c **** void microros_deallocate(void * pointer, void * state);
 131:Core/Src/app_freertos.c **** void * microros_reallocate(void * pointer, size_t size, void * state);
 132:Core/Src/app_freertos.c **** void * microros_zero_allocate(size_t number_of_elements, size_t size_of_element, void * state);
 133:Core/Src/app_freertos.c **** 
 134:Core/Src/app_freertos.c **** 
 135:Core/Src/app_freertos.c **** rcl_publisher_t jc_publisher;
 136:Core/Src/app_freertos.c **** rcl_subscription_t jc_subscriber;
 137:Core/Src/app_freertos.c **** rclc_executor_t jc_executor;
 138:Core/Src/app_freertos.c **** rclc_support_t support;
 139:Core/Src/app_freertos.c **** rcl_allocator_t allocator;
 140:Core/Src/app_freertos.c **** //rcl_allocator_t new_allocator; //with custom memory allocators
 141:Core/Src/app_freertos.c **** rcl_node_t node;
 142:Core/Src/app_freertos.c **** rcl_init_options_t init_options;
 143:Core/Src/app_freertos.c **** rcl_ret_t rc;
 144:Core/Src/app_freertos.c **** 
 145:Core/Src/app_freertos.c **** std_msgs__msg__String msg;
 146:Core/Src/app_freertos.c **** std_msgs__msg__Int32 msg_out, msg_in;
 147:Core/Src/app_freertos.c **** 
 148:Core/Src/app_freertos.c **** 
 149:Core/Src/app_freertos.c **** extern uint32_t read_fault; //soft WD
 150:Core/Src/app_freertos.c **** extern IWDG_HandleTypeDef hiwdg; //hard WD
 151:Core/Src/app_freertos.c **** 
 152:Core/Src/app_freertos.c **** 
 153:Core/Src/app_freertos.c **** extern FDCAN_HandleTypeDef hfdcan1;
 154:Core/Src/app_freertos.c **** extern TIM_HandleTypeDef htim8;
 155:Core/Src/app_freertos.c **** 
 156:Core/Src/app_freertos.c **** /* USER CODE END FunctionPrototypes */
 157:Core/Src/app_freertos.c **** 
 158:Core/Src/app_freertos.c **** void StartDefaultTask(void *argument);
 159:Core/Src/app_freertos.c **** void StartTask09(void *argument);
 160:Core/Src/app_freertos.c **** void StartTask10(void *argument);
 161:Core/Src/app_freertos.c **** 
 162:Core/Src/app_freertos.c **** void MX_FREERTOS_Init(void); /* (MISRA C 2004 rule 8.1) */
 163:Core/Src/app_freertos.c **** 
 164:Core/Src/app_freertos.c **** /**
 165:Core/Src/app_freertos.c ****   * @brief  FreeRTOS initialization
 166:Core/Src/app_freertos.c ****   * @param  None
 167:Core/Src/app_freertos.c ****   * @retval None
 168:Core/Src/app_freertos.c ****   */
 169:Core/Src/app_freertos.c **** void MX_FREERTOS_Init(void) {
 170:Core/Src/app_freertos.c ****   /* USER CODE BEGIN Init */
 171:Core/Src/app_freertos.c **** 
 172:Core/Src/app_freertos.c ****   /* USER CODE END Init */
 173:Core/Src/app_freertos.c **** 
 174:Core/Src/app_freertos.c ****   /* USER CODE BEGIN RTOS_MUTEX */
 175:Core/Src/app_freertos.c ****   /* add mutexes, ... */
 176:Core/Src/app_freertos.c ****   /* USER CODE END RTOS_MUTEX */
 177:Core/Src/app_freertos.c **** 
 178:Core/Src/app_freertos.c ****   /* Create the semaphores(s) */
 179:Core/Src/app_freertos.c ****   /* creation of PublisherSemaphore */
 180:Core/Src/app_freertos.c ****   PublisherSemaphoreHandle = osSemaphoreNew(1, 0, &PublisherSemaphore_attributes);
 181:Core/Src/app_freertos.c **** 
 182:Core/Src/app_freertos.c ****   /* USER CODE BEGIN RTOS_SEMAPHORES */
 183:Core/Src/app_freertos.c ****   /* add semaphores, ... */
 184:Core/Src/app_freertos.c ****   /* USER CODE END RTOS_SEMAPHORES */
ARM GAS  C:\Users\SOROKO~1\AppData\Local\Temp\ccQ20GYb.s 			page 5


 185:Core/Src/app_freertos.c **** 
 186:Core/Src/app_freertos.c ****   /* USER CODE BEGIN RTOS_TIMERS */
 187:Core/Src/app_freertos.c ****   /* start timers, add new ones, ... */
 188:Core/Src/app_freertos.c ****   /* USER CODE END RTOS_TIMERS */
 189:Core/Src/app_freertos.c **** 
 190:Core/Src/app_freertos.c ****   /* USER CODE BEGIN RTOS_QUEUES */
 191:Core/Src/app_freertos.c ****   /* add queues, ... */
 192:Core/Src/app_freertos.c ****   /* USER CODE END RTOS_QUEUES */
 193:Core/Src/app_freertos.c **** 
 194:Core/Src/app_freertos.c ****   /* Create the thread(s) */
 195:Core/Src/app_freertos.c ****   /* creation of defaultTask */
 196:Core/Src/app_freertos.c ****   defaultTaskHandle = osThreadNew(StartDefaultTask, NULL, &defaultTask_attributes);
 197:Core/Src/app_freertos.c **** 
 198:Core/Src/app_freertos.c ****   /* creation of jcPublisher */
 199:Core/Src/app_freertos.c ****   jcPublisherHandle = osThreadNew(StartTask09, NULL, &jcPublisher_attributes);
 200:Core/Src/app_freertos.c **** 
 201:Core/Src/app_freertos.c ****   /* creation of jcSubscriber */
 202:Core/Src/app_freertos.c ****   jcSubscriberHandle = osThreadNew(StartTask10, NULL, &jcSubscriber_attributes);
 203:Core/Src/app_freertos.c **** 
 204:Core/Src/app_freertos.c ****   /* USER CODE BEGIN RTOS_THREADS */
 205:Core/Src/app_freertos.c ****   /* add threads, ... */
 206:Core/Src/app_freertos.c ****   /* USER CODE END RTOS_THREADS */
 207:Core/Src/app_freertos.c **** 
 208:Core/Src/app_freertos.c ****   /* USER CODE BEGIN RTOS_EVENTS */
 209:Core/Src/app_freertos.c ****   /* add events, ... */
 210:Core/Src/app_freertos.c ****   /* USER CODE END RTOS_EVENTS */
 211:Core/Src/app_freertos.c **** 
 212:Core/Src/app_freertos.c **** }
 213:Core/Src/app_freertos.c **** 
 214:Core/Src/app_freertos.c **** /* USER CODE BEGIN Header_StartDefaultTask */
 215:Core/Src/app_freertos.c **** /**
 216:Core/Src/app_freertos.c ****   * @brief  Function implementing the defaultTask thread.
 217:Core/Src/app_freertos.c ****   * @param  argument: Not used
 218:Core/Src/app_freertos.c ****   * @retval None
 219:Core/Src/app_freertos.c ****   */
 220:Core/Src/app_freertos.c **** /* USER CODE END Header_StartDefaultTask */
 221:Core/Src/app_freertos.c **** void StartDefaultTask(void *argument)
 222:Core/Src/app_freertos.c **** {
  40              		.loc 1 222 1 view -0
  41              		.cfi_startproc
  42              		@ args = 0, pretend = 0, frame = 80
  43              		@ frame_needed = 0, uses_anonymous_args = 0
  44              		.loc 1 222 1 is_stmt 0 view .LVU1
  45 0000 70B5     		push	{r4, r5, r6, lr}
  46              	.LCFI0:
  47              		.cfi_def_cfa_offset 16
  48              		.cfi_offset 4, -16
  49              		.cfi_offset 5, -12
  50              		.cfi_offset 6, -8
  51              		.cfi_offset 14, -4
  52 0002 96B0     		sub	sp, sp, #88
  53              	.LCFI1:
  54              		.cfi_def_cfa_offset 104
 223:Core/Src/app_freertos.c ****   /* USER CODE BEGIN StartDefaultTask */
 224:Core/Src/app_freertos.c **** 
 225:Core/Src/app_freertos.c **** 		//RCL init
 226:Core/Src/app_freertos.c **** 
ARM GAS  C:\Users\SOROKO~1\AppData\Local\Temp\ccQ20GYb.s 			page 6


 227:Core/Src/app_freertos.c **** 		rmw_uros_set_custom_transport(
  55              		.loc 1 227 3 is_stmt 1 view .LVU2
  56 0004 364B     		ldr	r3, .L6
  57 0006 0193     		str	r3, [sp, #4]
  58 0008 364B     		ldr	r3, .L6+4
  59 000a 0093     		str	r3, [sp]
  60 000c 364B     		ldr	r3, .L6+8
  61 000e 374A     		ldr	r2, .L6+12
  62 0010 3749     		ldr	r1, .L6+16
  63 0012 0120     		movs	r0, #1
  64              	.LVL1:
  65              		.loc 1 227 3 is_stmt 0 view .LVU3
  66 0014 FFF7FEFF 		bl	rmw_uros_set_custom_transport
  67              	.LVL2:
 228:Core/Src/app_freertos.c **** 						true,
 229:Core/Src/app_freertos.c **** 						(void *) &hfdcan1,
 230:Core/Src/app_freertos.c **** 						cubemx_transport_open,
 231:Core/Src/app_freertos.c **** 						cubemx_transport_close,
 232:Core/Src/app_freertos.c **** 						cubemx_transport_write,
 233:Core/Src/app_freertos.c **** 						cubemx_transport_read);
 234:Core/Src/app_freertos.c **** 
 235:Core/Src/app_freertos.c **** 		rcl_allocator_t freeRTOS_allocator = rcutils_get_zero_initialized_allocator();
  68              		.loc 1 235 3 is_stmt 1 view .LVU4
  69              		.loc 1 235 40 is_stmt 0 view .LVU5
  70 0018 11A8     		add	r0, sp, #68
  71 001a FFF7FEFF 		bl	rcutils_get_zero_initialized_allocator
  72              	.LVL3:
 236:Core/Src/app_freertos.c **** 		freeRTOS_allocator.allocate = microros_allocate;
  73              		.loc 1 236 3 is_stmt 1 view .LVU6
  74              		.loc 1 236 31 is_stmt 0 view .LVU7
  75 001e 354B     		ldr	r3, .L6+20
  76 0020 1193     		str	r3, [sp, #68]
 237:Core/Src/app_freertos.c **** 		freeRTOS_allocator.deallocate = microros_deallocate;
  77              		.loc 1 237 3 is_stmt 1 view .LVU8
  78              		.loc 1 237 33 is_stmt 0 view .LVU9
  79 0022 354B     		ldr	r3, .L6+24
  80 0024 1293     		str	r3, [sp, #72]
 238:Core/Src/app_freertos.c **** 		freeRTOS_allocator.reallocate = microros_reallocate;
  81              		.loc 1 238 3 is_stmt 1 view .LVU10
  82              		.loc 1 238 33 is_stmt 0 view .LVU11
  83 0026 354B     		ldr	r3, .L6+28
  84 0028 1393     		str	r3, [sp, #76]
 239:Core/Src/app_freertos.c **** 		freeRTOS_allocator.zero_allocate =  microros_zero_allocate;
  85              		.loc 1 239 3 is_stmt 1 view .LVU12
  86              		.loc 1 239 36 is_stmt 0 view .LVU13
  87 002a 354B     		ldr	r3, .L6+32
  88 002c 1493     		str	r3, [sp, #80]
 240:Core/Src/app_freertos.c **** 
 241:Core/Src/app_freertos.c **** 		rcutils_set_default_allocator(&freeRTOS_allocator);
  89              		.loc 1 241 3 is_stmt 1 view .LVU14
  90 002e 11A8     		add	r0, sp, #68
  91 0030 FFF7FEFF 		bl	rcutils_set_default_allocator
  92              	.LVL4:
 242:Core/Src/app_freertos.c **** 
 243:Core/Src/app_freertos.c **** 		allocator = rcl_get_default_allocator();
  93              		.loc 1 243 3 view .LVU15
  94              		.loc 1 243 15 is_stmt 0 view .LVU16
ARM GAS  C:\Users\SOROKO~1\AppData\Local\Temp\ccQ20GYb.s 			page 7


  95 0034 334C     		ldr	r4, .L6+36
  96 0036 02A8     		add	r0, sp, #8
  97 0038 FFF7FEFF 		bl	rcutils_get_default_allocator
  98              	.LVL5:
  99 003c A646     		mov	lr, r4
 100 003e 0DF1080C 		add	ip, sp, #8
 101 0042 BCE80F00 		ldmia	ip!, {r0, r1, r2, r3}
 102 0046 AEE80F00 		stmia	lr!, {r0, r1, r2, r3}
 103 004a DCF80030 		ldr	r3, [ip]
 104 004e CEF80030 		str	r3, [lr]
 244:Core/Src/app_freertos.c **** 		init_options = rcl_get_zero_initialized_init_options();
 105              		.loc 1 244 3 is_stmt 1 view .LVU17
 106              		.loc 1 244 18 is_stmt 0 view .LVU18
 107 0052 FFF7FEFF 		bl	rcl_get_zero_initialized_init_options
 108              	.LVL6:
 109 0056 2C4D     		ldr	r5, .L6+40
 110 0058 2860     		str	r0, [r5]
 245:Core/Src/app_freertos.c **** 
 246:Core/Src/app_freertos.c **** 		rcl_init_options_set_domain_id(&init_options, 0); //setting the domain ID
 111              		.loc 1 246 3 is_stmt 1 view .LVU19
 112 005a 0021     		movs	r1, #0
 113 005c 2846     		mov	r0, r5
 114 005e FFF7FEFF 		bl	rcl_init_options_set_domain_id
 115              	.LVL7:
 247:Core/Src/app_freertos.c **** 
 248:Core/Src/app_freertos.c **** 		rcl_init_options_init(&init_options, allocator);
 116              		.loc 1 248 3 view .LVU20
 117 0062 04F10C03 		add	r3, r4, #12
 118 0066 93E80300 		ldm	r3, {r0, r1}
 119 006a 8DE80300 		stm	sp, {r0, r1}
 120 006e 94E80E00 		ldm	r4, {r1, r2, r3}
 121 0072 2846     		mov	r0, r5
 122 0074 FFF7FEFF 		bl	rcl_init_options_init
 123              	.LVL8:
 249:Core/Src/app_freertos.c **** 
 250:Core/Src/app_freertos.c **** 		rmw_init_options_t* rmw_options = rcl_init_options_get_rmw_init_options(&init_options);
 124              		.loc 1 250 3 view .LVU21
 125              		.loc 1 250 37 is_stmt 0 view .LVU22
 126 0078 2846     		mov	r0, r5
 127 007a FFF7FEFF 		bl	rcl_init_options_get_rmw_init_options
 128              	.LVL9:
 129 007e 0146     		mov	r1, r0
 130              	.LVL10:
 251:Core/Src/app_freertos.c **** 
 252:Core/Src/app_freertos.c **** 		uint32_t client_key;
 131              		.loc 1 252 3 is_stmt 1 view .LVU23
 253:Core/Src/app_freertos.c **** 		client_key = 10 + JOINTN;
 132              		.loc 1 253 3 view .LVU24
 254:Core/Src/app_freertos.c **** 		rmw_uros_options_set_client_key(client_key, rmw_options);
 133              		.loc 1 254 3 view .LVU25
 134 0080 0C20     		movs	r0, #12
 135              	.LVL11:
 136              		.loc 1 254 3 is_stmt 0 view .LVU26
 137 0082 FFF7FEFF 		bl	rmw_uros_options_set_client_key
 138              	.LVL12:
 255:Core/Src/app_freertos.c **** 
 256:Core/Src/app_freertos.c **** 		rclc_support_init_with_options(&support, 0, NULL, &init_options, &allocator);
ARM GAS  C:\Users\SOROKO~1\AppData\Local\Temp\ccQ20GYb.s 			page 8


 139              		.loc 1 256 3 is_stmt 1 view .LVU27
 140 0086 214E     		ldr	r6, .L6+44
 141 0088 0094     		str	r4, [sp]
 142 008a 2B46     		mov	r3, r5
 143 008c 0022     		movs	r2, #0
 144 008e 1146     		mov	r1, r2
 145 0090 3046     		mov	r0, r6
 146 0092 FFF7FEFF 		bl	rclc_support_init_with_options
 147              	.LVL13:
 257:Core/Src/app_freertos.c **** 
 258:Core/Src/app_freertos.c **** 		//Control part
 259:Core/Src/app_freertos.c **** 		char node_name[12];
 148              		.loc 1 259 3 view .LVU28
 260:Core/Src/app_freertos.c **** 		sprintf(node_name,"sonic_node_%d", JOINTN);
 149              		.loc 1 260 3 view .LVU29
 150 0096 0222     		movs	r2, #2
 151 0098 1D49     		ldr	r1, .L6+48
 152 009a 0EA8     		add	r0, sp, #56
 153 009c FFF7FEFF 		bl	sprintf
 154              	.LVL14:
 261:Core/Src/app_freertos.c **** 
 262:Core/Src/app_freertos.c **** 		rclc_node_init_default(&node, node_name, "", &support);
 155              		.loc 1 262 3 view .LVU30
 156 00a0 1C4C     		ldr	r4, .L6+52
 157 00a2 3346     		mov	r3, r6
 158 00a4 1C4A     		ldr	r2, .L6+56
 159 00a6 0EA9     		add	r1, sp, #56
 160 00a8 2046     		mov	r0, r4
 161 00aa FFF7FEFF 		bl	rclc_node_init_default
 162              	.LVL15:
 263:Core/Src/app_freertos.c **** 
 264:Core/Src/app_freertos.c **** 		char topic_pub_name[18];
 163              		.loc 1 264 3 view .LVU31
 265:Core/Src/app_freertos.c **** 		sprintf(topic_pub_name,"sonic_pub_%d", JOINTN);
 164              		.loc 1 265 3 view .LVU32
 165 00ae 0222     		movs	r2, #2
 166 00b0 1A49     		ldr	r1, .L6+60
 167 00b2 09A8     		add	r0, sp, #36
 168 00b4 FFF7FEFF 		bl	sprintf
 169              	.LVL16:
 266:Core/Src/app_freertos.c **** 
 267:Core/Src/app_freertos.c **** 		rclc_publisher_init_default(
 170              		.loc 1 267 3 view .LVU33
 171 00b8 FFF7FEFF 		bl	rosidl_typesupport_c__get_message_type_support_handle__std_msgs__msg__Int32
 172              	.LVL17:
 173 00bc 0246     		mov	r2, r0
 174 00be 09AB     		add	r3, sp, #36
 175 00c0 2146     		mov	r1, r4
 176 00c2 1748     		ldr	r0, .L6+64
 177 00c4 FFF7FEFF 		bl	rclc_publisher_init_default
 178              	.LVL18:
 179 00c8 05E0     		b	.L3
 180              	.L5:
 268:Core/Src/app_freertos.c **** 			&jc_publisher,
 269:Core/Src/app_freertos.c **** 			&node,
 270:Core/Src/app_freertos.c **** 			ROSIDL_GET_MSG_TYPE_SUPPORT(std_msgs, msg, Int32),
 271:Core/Src/app_freertos.c **** 			topic_pub_name);
ARM GAS  C:\Users\SOROKO~1\AppData\Local\Temp\ccQ20GYb.s 			page 9


 272:Core/Src/app_freertos.c **** 
 273:Core/Src/app_freertos.c **** /*
 274:Core/Src/app_freertos.c **** 		char topic_sub_name[18];
 275:Core/Src/app_freertos.c **** 		sprintf(topic_sub_name,"joint_state_sub_%d", jc.joint_number);
 276:Core/Src/app_freertos.c **** 
 277:Core/Src/app_freertos.c **** 		rc = rclc_subscription_init_default(
 278:Core/Src/app_freertos.c **** 			&jc_subscriber, &node,
 279:Core/Src/app_freertos.c **** 			ROSIDL_GET_MSG_TYPE_SUPPORT(sensor_msgs, msg, JointState),
 280:Core/Src/app_freertos.c **** 			topic_sub_name);
 281:Core/Src/app_freertos.c **** 
 282:Core/Src/app_freertos.c **** 		jc_executor = rclc_executor_get_zero_initialized_executor();
 283:Core/Src/app_freertos.c **** 		rc = rclc_executor_init(&jc_executor, &support.context, 1, &allocator);
 284:Core/Src/app_freertos.c **** 
 285:Core/Src/app_freertos.c **** 		rc = rclc_executor_add_subscription(
 286:Core/Src/app_freertos.c **** 			&jc_executor, &jc_subscriber, &js_in,
 287:Core/Src/app_freertos.c **** 			&jc_sub_cb, ON_NEW_DATA);
 288:Core/Src/app_freertos.c **** */
 289:Core/Src/app_freertos.c **** 
 290:Core/Src/app_freertos.c **** 
 291:Core/Src/app_freertos.c **** 		//ALERT regulator
 292:Core/Src/app_freertos.c **** 	for(;;)
 293:Core/Src/app_freertos.c **** 	{
 294:Core/Src/app_freertos.c **** 	if (read_fault < 25)
 295:Core/Src/app_freertos.c **** 	{
 296:Core/Src/app_freertos.c **** 	HAL_IWDG_Refresh(&hiwdg);
 181              		.loc 1 296 2 view .LVU34
 182 00ca 1648     		ldr	r0, .L6+68
 183 00cc FFF7FEFF 		bl	HAL_IWDG_Refresh
 184              	.LVL19:
 185              	.L2:
 297:Core/Src/app_freertos.c **** 	}
 298:Core/Src/app_freertos.c **** 
 299:Core/Src/app_freertos.c **** 	//some things to add
 300:Core/Src/app_freertos.c **** 
 301:Core/Src/app_freertos.c **** 	vTaskDelay(100);
 186              		.loc 1 301 2 view .LVU35
 187 00d0 6420     		movs	r0, #100
 188 00d2 FFF7FEFF 		bl	vTaskDelay
 189              	.LVL20:
 292:Core/Src/app_freertos.c **** 	{
 190              		.loc 1 292 2 view .LVU36
 191              	.L3:
 292:Core/Src/app_freertos.c **** 	{
 192              		.loc 1 292 2 view .LVU37
 294:Core/Src/app_freertos.c **** 	{
 193              		.loc 1 294 2 view .LVU38
 294:Core/Src/app_freertos.c **** 	{
 194              		.loc 1 294 17 is_stmt 0 view .LVU39
 195 00d6 144B     		ldr	r3, .L6+72
 196 00d8 1B68     		ldr	r3, [r3]
 294:Core/Src/app_freertos.c **** 	{
 197              		.loc 1 294 5 view .LVU40
 198 00da 182B     		cmp	r3, #24
 199 00dc F5D9     		bls	.L5
 200 00de F7E7     		b	.L2
 201              	.L7:
 202              		.align	2
ARM GAS  C:\Users\SOROKO~1\AppData\Local\Temp\ccQ20GYb.s 			page 10


 203              	.L6:
 204 00e0 00000000 		.word	cubemx_transport_read
 205 00e4 00000000 		.word	cubemx_transport_write
 206 00e8 00000000 		.word	cubemx_transport_close
 207 00ec 00000000 		.word	cubemx_transport_open
 208 00f0 00000000 		.word	hfdcan1
 209 00f4 00000000 		.word	microros_allocate
 210 00f8 00000000 		.word	microros_deallocate
 211 00fc 00000000 		.word	microros_reallocate
 212 0100 00000000 		.word	microros_zero_allocate
 213 0104 00000000 		.word	.LANCHOR0
 214 0108 00000000 		.word	.LANCHOR1
 215 010c 00000000 		.word	.LANCHOR2
 216 0110 00000000 		.word	.LC0
 217 0114 00000000 		.word	.LANCHOR3
 218 0118 10000000 		.word	.LC1
 219 011c 14000000 		.word	.LC2
 220 0120 00000000 		.word	.LANCHOR4
 221 0124 00000000 		.word	hiwdg
 222 0128 00000000 		.word	read_fault
 223              		.cfi_endproc
 224              	.LFE141:
 226              		.section	.text.StartTask09,"ax",%progbits
 227              		.align	1
 228              		.global	StartTask09
 229              		.syntax unified
 230              		.thumb
 231              		.thumb_func
 233              	StartTask09:
 234              	.LVL21:
 235              	.LFB142:
 302:Core/Src/app_freertos.c **** 	}
 303:Core/Src/app_freertos.c **** 
 304:Core/Src/app_freertos.c ****   /* USER CODE END StartDefaultTask */
 305:Core/Src/app_freertos.c **** }
 306:Core/Src/app_freertos.c **** 
 307:Core/Src/app_freertos.c **** /* USER CODE BEGIN Header_StartTask09 */
 308:Core/Src/app_freertos.c **** /**
 309:Core/Src/app_freertos.c **** * @brief Function implementing the jcPublisher thread.
 310:Core/Src/app_freertos.c **** * @param argument: Not used
 311:Core/Src/app_freertos.c **** * @retval None
 312:Core/Src/app_freertos.c **** */
 313:Core/Src/app_freertos.c **** /* USER CODE END Header_StartTask09 */
 314:Core/Src/app_freertos.c **** void StartTask09(void *argument)
 315:Core/Src/app_freertos.c **** {
 236              		.loc 1 315 1 is_stmt 1 view -0
 237              		.cfi_startproc
 238              		@ args = 0, pretend = 0, frame = 0
 239              		@ frame_needed = 0, uses_anonymous_args = 0
 240              		.loc 1 315 1 is_stmt 0 view .LVU42
 241 0000 10B5     		push	{r4, lr}
 242              	.LCFI2:
 243              		.cfi_def_cfa_offset 8
 244              		.cfi_offset 4, -8
 245              		.cfi_offset 14, -4
 316:Core/Src/app_freertos.c ****   /* USER CODE BEGIN StartTask09 */
 317:Core/Src/app_freertos.c **** 	//jcPublisher
ARM GAS  C:\Users\SOROKO~1\AppData\Local\Temp\ccQ20GYb.s 			page 11


 318:Core/Src/app_freertos.c **** 	int32_t i = 0;
 246              		.loc 1 318 2 is_stmt 1 view .LVU43
 247              	.LVL22:
 248              		.loc 1 318 10 is_stmt 0 view .LVU44
 249 0002 0024     		movs	r4, #0
 250              	.LVL23:
 251              	.L9:
 319:Core/Src/app_freertos.c ****   /* Infinite loop */
 320:Core/Src/app_freertos.c ****   for(;;)
 252              		.loc 1 320 3 is_stmt 1 discriminator 1 view .LVU45
 321:Core/Src/app_freertos.c ****   {
 322:Core/Src/app_freertos.c **** 
 323:Core/Src/app_freertos.c **** 	msg_out.data = i;
 253              		.loc 1 323 2 discriminator 1 view .LVU46
 254              		.loc 1 323 15 is_stmt 0 discriminator 1 view .LVU47
 255 0004 0549     		ldr	r1, .L11
 256 0006 0C60     		str	r4, [r1]
 324:Core/Src/app_freertos.c **** 	//osSemaphoreAcquire(PublisherSemaphoreHandle, 0);
 325:Core/Src/app_freertos.c **** 	rcl_publish(&jc_publisher, &msg_out, NULL);
 257              		.loc 1 325 2 is_stmt 1 discriminator 1 view .LVU48
 258 0008 0022     		movs	r2, #0
 259 000a 0548     		ldr	r0, .L11+4
 260 000c FFF7FEFF 		bl	rcl_publish
 261              	.LVL24:
 326:Core/Src/app_freertos.c **** 	//osSemaphoreRelease(PublisherSemaphoreHandle);
 327:Core/Src/app_freertos.c **** 	i++;
 262              		.loc 1 327 2 discriminator 1 view .LVU49
 263              		.loc 1 327 3 is_stmt 0 discriminator 1 view .LVU50
 264 0010 0134     		adds	r4, r4, #1
 265              	.LVL25:
 328:Core/Src/app_freertos.c ****     osDelay(10);
 266              		.loc 1 328 5 is_stmt 1 discriminator 1 view .LVU51
 267 0012 0A20     		movs	r0, #10
 268 0014 FFF7FEFF 		bl	osDelay
 269              	.LVL26:
 320:Core/Src/app_freertos.c ****   {
 270              		.loc 1 320 3 discriminator 1 view .LVU52
 271 0018 F4E7     		b	.L9
 272              	.L12:
 273 001a 00BF     		.align	2
 274              	.L11:
 275 001c 00000000 		.word	.LANCHOR5
 276 0020 00000000 		.word	.LANCHOR4
 277              		.cfi_endproc
 278              	.LFE142:
 280              		.section	.text.StartTask10,"ax",%progbits
 281              		.align	1
 282              		.global	StartTask10
 283              		.syntax unified
 284              		.thumb
 285              		.thumb_func
 287              	StartTask10:
 288              	.LFB143:
 329:Core/Src/app_freertos.c ****   }
 330:Core/Src/app_freertos.c ****   /* USER CODE END StartTask09 */
 331:Core/Src/app_freertos.c **** }
 332:Core/Src/app_freertos.c **** 
ARM GAS  C:\Users\SOROKO~1\AppData\Local\Temp\ccQ20GYb.s 			page 12


 333:Core/Src/app_freertos.c **** /* USER CODE BEGIN Header_StartTask10 */
 334:Core/Src/app_freertos.c **** /**
 335:Core/Src/app_freertos.c **** * @brief Function implementing the jcSubscriber thread.
 336:Core/Src/app_freertos.c **** * @param argument: Not used
 337:Core/Src/app_freertos.c **** * @retval None
 338:Core/Src/app_freertos.c **** */
 339:Core/Src/app_freertos.c **** /* USER CODE END Header_StartTask10 */
 340:Core/Src/app_freertos.c **** void StartTask10(void *argument)
 341:Core/Src/app_freertos.c **** {
 289              		.loc 1 341 1 view -0
 290              		.cfi_startproc
 291              		@ Volatile: function does not return.
 292              		@ args = 0, pretend = 0, frame = 0
 293              		@ frame_needed = 0, uses_anonymous_args = 0
 294              	.LVL27:
 295              		.loc 1 341 1 is_stmt 0 view .LVU54
 296 0000 08B5     		push	{r3, lr}
 297              	.LCFI3:
 298              		.cfi_def_cfa_offset 8
 299              		.cfi_offset 3, -8
 300              		.cfi_offset 14, -4
 301              	.LVL28:
 302              	.L14:
 342:Core/Src/app_freertos.c ****   /* USER CODE BEGIN StartTask10 */
 343:Core/Src/app_freertos.c **** 	//jcSubscriber
 344:Core/Src/app_freertos.c ****   /* Infinite loop */
 345:Core/Src/app_freertos.c ****   for(;;)
 303              		.loc 1 345 3 is_stmt 1 discriminator 1 view .LVU55
 346:Core/Src/app_freertos.c ****   {
 347:Core/Src/app_freertos.c **** 	//rclc_executor_spin_some(&jc_executor, 1);
 348:Core/Src/app_freertos.c ****     osDelay(1000);
 304              		.loc 1 348 5 discriminator 1 view .LVU56
 305 0002 4FF47A70 		mov	r0, #1000
 306 0006 FFF7FEFF 		bl	osDelay
 307              	.LVL29:
 345:Core/Src/app_freertos.c ****   {
 308              		.loc 1 345 3 discriminator 1 view .LVU57
 309 000a FAE7     		b	.L14
 310              		.cfi_endproc
 311              	.LFE143:
 313              		.section	.text.MX_FREERTOS_Init,"ax",%progbits
 314              		.align	1
 315              		.global	MX_FREERTOS_Init
 316              		.syntax unified
 317              		.thumb
 318              		.thumb_func
 320              	MX_FREERTOS_Init:
 321              	.LFB140:
 169:Core/Src/app_freertos.c ****   /* USER CODE BEGIN Init */
 322              		.loc 1 169 29 view -0
 323              		.cfi_startproc
 324              		@ args = 0, pretend = 0, frame = 0
 325              		@ frame_needed = 0, uses_anonymous_args = 0
 326 0000 08B5     		push	{r3, lr}
 327              	.LCFI4:
 328              		.cfi_def_cfa_offset 8
 329              		.cfi_offset 3, -8
ARM GAS  C:\Users\SOROKO~1\AppData\Local\Temp\ccQ20GYb.s 			page 13


 330              		.cfi_offset 14, -4
 180:Core/Src/app_freertos.c **** 
 331              		.loc 1 180 3 view .LVU59
 180:Core/Src/app_freertos.c **** 
 332              		.loc 1 180 30 is_stmt 0 view .LVU60
 333 0002 0E4A     		ldr	r2, .L18
 334 0004 0021     		movs	r1, #0
 335 0006 0120     		movs	r0, #1
 336 0008 FFF7FEFF 		bl	osSemaphoreNew
 337              	.LVL30:
 180:Core/Src/app_freertos.c **** 
 338              		.loc 1 180 28 view .LVU61
 339 000c 0C4B     		ldr	r3, .L18+4
 340 000e 1860     		str	r0, [r3]
 196:Core/Src/app_freertos.c **** 
 341              		.loc 1 196 3 is_stmt 1 view .LVU62
 196:Core/Src/app_freertos.c **** 
 342              		.loc 1 196 23 is_stmt 0 view .LVU63
 343 0010 0C4A     		ldr	r2, .L18+8
 344 0012 0021     		movs	r1, #0
 345 0014 0C48     		ldr	r0, .L18+12
 346 0016 FFF7FEFF 		bl	osThreadNew
 347              	.LVL31:
 196:Core/Src/app_freertos.c **** 
 348              		.loc 1 196 21 view .LVU64
 349 001a 0C4B     		ldr	r3, .L18+16
 350 001c 1860     		str	r0, [r3]
 199:Core/Src/app_freertos.c **** 
 351              		.loc 1 199 3 is_stmt 1 view .LVU65
 199:Core/Src/app_freertos.c **** 
 352              		.loc 1 199 23 is_stmt 0 view .LVU66
 353 001e 0C4A     		ldr	r2, .L18+20
 354 0020 0021     		movs	r1, #0
 355 0022 0C48     		ldr	r0, .L18+24
 356 0024 FFF7FEFF 		bl	osThreadNew
 357              	.LVL32:
 199:Core/Src/app_freertos.c **** 
 358              		.loc 1 199 21 view .LVU67
 359 0028 0B4B     		ldr	r3, .L18+28
 360 002a 1860     		str	r0, [r3]
 202:Core/Src/app_freertos.c **** 
 361              		.loc 1 202 3 is_stmt 1 view .LVU68
 202:Core/Src/app_freertos.c **** 
 362              		.loc 1 202 24 is_stmt 0 view .LVU69
 363 002c 0B4A     		ldr	r2, .L18+32
 364 002e 0021     		movs	r1, #0
 365 0030 0B48     		ldr	r0, .L18+36
 366 0032 FFF7FEFF 		bl	osThreadNew
 367              	.LVL33:
 202:Core/Src/app_freertos.c **** 
 368              		.loc 1 202 22 view .LVU70
 369 0036 0B4B     		ldr	r3, .L18+40
 370 0038 1860     		str	r0, [r3]
 212:Core/Src/app_freertos.c **** 
 371              		.loc 1 212 1 view .LVU71
 372 003a 08BD     		pop	{r3, pc}
 373              	.L19:
ARM GAS  C:\Users\SOROKO~1\AppData\Local\Temp\ccQ20GYb.s 			page 14


 374              		.align	2
 375              	.L18:
 376 003c 00000000 		.word	.LANCHOR6
 377 0040 00000000 		.word	.LANCHOR7
 378 0044 00000000 		.word	.LANCHOR8
 379 0048 00000000 		.word	StartDefaultTask
 380 004c 00000000 		.word	.LANCHOR9
 381 0050 00000000 		.word	.LANCHOR10
 382 0054 00000000 		.word	StartTask09
 383 0058 00000000 		.word	.LANCHOR11
 384 005c 00000000 		.word	.LANCHOR12
 385 0060 00000000 		.word	StartTask10
 386 0064 00000000 		.word	.LANCHOR13
 387              		.cfi_endproc
 388              	.LFE140:
 390              		.section	.text.jc_sub_cb,"ax",%progbits
 391              		.align	1
 392              		.global	jc_sub_cb
 393              		.syntax unified
 394              		.thumb
 395              		.thumb_func
 397              	jc_sub_cb:
 398              	.LVL34:
 399              	.LFB144:
 349:Core/Src/app_freertos.c ****   }
 350:Core/Src/app_freertos.c ****   /* USER CODE END StartTask10 */
 351:Core/Src/app_freertos.c **** }
 352:Core/Src/app_freertos.c **** 
 353:Core/Src/app_freertos.c **** /* Private application code --------------------------------------------------*/
 354:Core/Src/app_freertos.c **** /* USER CODE BEGIN Application */
 355:Core/Src/app_freertos.c **** void jc_sub_cb(const void * msg_input)
 356:Core/Src/app_freertos.c **** {
 400              		.loc 1 356 1 is_stmt 1 view -0
 401              		.cfi_startproc
 402              		@ args = 0, pretend = 0, frame = 0
 403              		@ frame_needed = 0, uses_anonymous_args = 0
 404              		@ link register save eliminated.
 357:Core/Src/app_freertos.c **** 	// Cast messages to expected types
 358:Core/Src/app_freertos.c **** 	//const sensor_msgs__msg__JointState * js_in = (const sensor_msgs__msg__JointState *)msg_input;
 359:Core/Src/app_freertos.c **** 
 360:Core/Src/app_freertos.c **** }
 405              		.loc 1 360 1 view .LVU73
 406 0000 7047     		bx	lr
 407              		.cfi_endproc
 408              	.LFE144:
 410              		.global	msg_in
 411              		.global	msg_out
 412              		.global	msg
 413              		.global	rc
 414              		.global	init_options
 415              		.global	node
 416              		.global	allocator
 417              		.global	support
 418              		.global	jc_executor
 419              		.global	jc_subscriber
 420              		.global	jc_publisher
 421              		.global	PublisherSemaphore_attributes
ARM GAS  C:\Users\SOROKO~1\AppData\Local\Temp\ccQ20GYb.s 			page 15


 422              		.section	.rodata.str1.4,"aMS",%progbits,1
 423              		.align	2
 424              	.LC3:
 425 0000 5075626C 		.ascii	"PublisherSemaphore\000"
 425      69736865 
 425      7253656D 
 425      6170686F 
 425      726500
 426              		.global	PublisherSemaphoreControlBlock
 427              		.global	PublisherSemaphoreHandle
 428              		.global	jcSubscriber_attributes
 429 0013 00       		.align	2
 430              	.LC4:
 431 0014 6A635375 		.ascii	"jcSubscriber\000"
 431      62736372 
 431      69626572 
 431      00
 432              		.global	jcSubscriberHandle
 433              		.global	jcPublisher_attributes
 434 0021 000000   		.align	2
 435              	.LC5:
 436 0024 6A635075 		.ascii	"jcPublisher\000"
 436      626C6973 
 436      68657200 
 437              		.global	jcPublisherHandle
 438              		.global	defaultTask_attributes
 439              		.align	2
 440              	.LC6:
 441 0030 64656661 		.ascii	"defaultTask\000"
 441      756C7454 
 441      61736B00 
 442              		.global	defaultTaskHandle
 443              		.section	.bss.PublisherSemaphoreControlBlock,"aw",%nobits
 444              		.align	2
 447              	PublisherSemaphoreControlBlock:
 448 0000 00000000 		.space	80
 448      00000000 
 448      00000000 
 448      00000000 
 448      00000000 
 449              		.section	.bss.PublisherSemaphoreHandle,"aw",%nobits
 450              		.align	2
 451              		.set	.LANCHOR7,. + 0
 454              	PublisherSemaphoreHandle:
 455 0000 00000000 		.space	4
 456              		.section	.bss.allocator,"aw",%nobits
 457              		.align	2
 458              		.set	.LANCHOR0,. + 0
 461              	allocator:
 462 0000 00000000 		.space	20
 462      00000000 
 462      00000000 
 462      00000000 
 462      00000000 
 463              		.section	.bss.defaultTaskHandle,"aw",%nobits
 464              		.align	2
 465              		.set	.LANCHOR9,. + 0
ARM GAS  C:\Users\SOROKO~1\AppData\Local\Temp\ccQ20GYb.s 			page 16


 468              	defaultTaskHandle:
 469 0000 00000000 		.space	4
 470              		.section	.bss.init_options,"aw",%nobits
 471              		.align	2
 472              		.set	.LANCHOR1,. + 0
 475              	init_options:
 476 0000 00000000 		.space	4
 477              		.section	.bss.jcPublisherHandle,"aw",%nobits
 478              		.align	2
 479              		.set	.LANCHOR11,. + 0
 482              	jcPublisherHandle:
 483 0000 00000000 		.space	4
 484              		.section	.bss.jcSubscriberHandle,"aw",%nobits
 485              		.align	2
 486              		.set	.LANCHOR13,. + 0
 489              	jcSubscriberHandle:
 490 0000 00000000 		.space	4
 491              		.section	.bss.jc_executor,"aw",%nobits
 492              		.align	3
 495              	jc_executor:
 496 0000 00000000 		.space	136
 496      00000000 
 496      00000000 
 496      00000000 
 496      00000000 
 497              		.section	.bss.jc_publisher,"aw",%nobits
 498              		.align	2
 499              		.set	.LANCHOR4,. + 0
 502              	jc_publisher:
 503 0000 00000000 		.space	4
 504              		.section	.bss.jc_subscriber,"aw",%nobits
 505              		.align	2
 508              	jc_subscriber:
 509 0000 00000000 		.space	4
 510              		.section	.bss.msg,"aw",%nobits
 511              		.align	2
 514              	msg:
 515 0000 00000000 		.space	12
 515      00000000 
 515      00000000 
 516              		.section	.bss.msg_in,"aw",%nobits
 517              		.align	2
 520              	msg_in:
 521 0000 00000000 		.space	4
 522              		.section	.bss.msg_out,"aw",%nobits
 523              		.align	2
 524              		.set	.LANCHOR5,. + 0
 527              	msg_out:
 528 0000 00000000 		.space	4
 529              		.section	.bss.node,"aw",%nobits
 530              		.align	2
 531              		.set	.LANCHOR3,. + 0
 534              	node:
 535 0000 00000000 		.space	8
 535      00000000 
 536              		.section	.bss.rc,"aw",%nobits
 537              		.align	2
ARM GAS  C:\Users\SOROKO~1\AppData\Local\Temp\ccQ20GYb.s 			page 17


 540              	rc:
 541 0000 00000000 		.space	4
 542              		.section	.bss.support,"aw",%nobits
 543              		.align	2
 544              		.set	.LANCHOR2,. + 0
 547              	support:
 548 0000 00000000 		.space	52
 548      00000000 
 548      00000000 
 548      00000000 
 548      00000000 
 549              		.section	.rodata.PublisherSemaphore_attributes,"a"
 550              		.align	2
 551              		.set	.LANCHOR6,. + 0
 554              	PublisherSemaphore_attributes:
 555 0000 00000000 		.word	.LC3
 556 0004 00000000 		.space	4
 557 0008 00000000 		.word	PublisherSemaphoreControlBlock
 558 000c 50000000 		.word	80
 559              		.section	.rodata.defaultTask_attributes,"a"
 560              		.align	2
 561              		.set	.LANCHOR8,. + 0
 564              	defaultTask_attributes:
 565 0000 30000000 		.word	.LC6
 566 0004 00000000 		.space	16
 566      00000000 
 566      00000000 
 566      00000000 
 567 0014 E02E0000 		.word	12000
 568 0018 18000000 		.word	24
 569 001c 00000000 		.space	8
 569      00000000 
 570              		.section	.rodata.jcPublisher_attributes,"a"
 571              		.align	2
 572              		.set	.LANCHOR10,. + 0
 575              	jcPublisher_attributes:
 576 0000 24000000 		.word	.LC5
 577 0004 00000000 		.space	16
 577      00000000 
 577      00000000 
 577      00000000 
 578 0014 D0070000 		.word	2000
 579 0018 08000000 		.word	8
 580 001c 00000000 		.space	8
 580      00000000 
 581              		.section	.rodata.jcSubscriber_attributes,"a"
 582              		.align	2
 583              		.set	.LANCHOR12,. + 0
 586              	jcSubscriber_attributes:
 587 0000 14000000 		.word	.LC4
 588 0004 00000000 		.space	16
 588      00000000 
 588      00000000 
 588      00000000 
 589 0014 D0070000 		.word	2000
 590 0018 08000000 		.word	8
 591 001c 00000000 		.space	8
ARM GAS  C:\Users\SOROKO~1\AppData\Local\Temp\ccQ20GYb.s 			page 18


 591      00000000 
 592              		.text
 593              	.Letext0:
 594              		.file 2 "C:\\ST\\STM32CubeIDE_1.9.0\\STM32CubeIDE\\plugins\\com.st.stm32cube.ide.mcu.externaltools
 595              		.file 3 "C:\\ST\\STM32CubeIDE_1.9.0\\STM32CubeIDE\\plugins\\com.st.stm32cube.ide.mcu.externaltools
 596              		.file 4 "C:\\ST\\STM32CubeIDE_1.9.0\\STM32CubeIDE\\plugins\\com.st.stm32cube.ide.mcu.externaltools
 597              		.file 5 "Middlewares/Third_Party/FreeRTOS/Source/portable/GCC/ARM_CM4F/portmacro.h"
 598              		.file 6 "Middlewares/Third_Party/FreeRTOS/Source/include/FreeRTOS.h"
 599              		.file 7 "Drivers/CMSIS/Device/ST/STM32G4xx/Include/stm32g474xx.h"
 600              		.file 8 "Drivers/CMSIS/Device/ST/STM32G4xx/Include/stm32g4xx.h"
 601              		.file 9 "Drivers/STM32G4xx_HAL_Driver/Inc/stm32g4xx_hal_def.h"
 602              		.file 10 "Drivers/STM32G4xx_HAL_Driver/Inc/stm32g4xx_hal_fdcan.h"
 603              		.file 11 "Drivers/STM32G4xx_HAL_Driver/Inc/stm32g4xx_hal_iwdg.h"
 604              		.file 12 "Middlewares/Third_Party/FreeRTOS/Source/CMSIS_RTOS_V2/cmsis_os2.h"
 605              		.file 13 "micro_ros_stm32cubemx_utils/microros_static_library/libmicroros/microros_include/rcutils
 606              		.file 14 "micro_ros_stm32cubemx_utils/microros_static_library/libmicroros/microros_include/rcl/all
 607              		.file 15 "micro_ros_stm32cubemx_utils/microros_static_library/libmicroros/microros_include/rmw/loc
 608              		.file 16 "micro_ros_stm32cubemx_utils/microros_static_library/libmicroros/microros_include/rmw/ret
 609              		.file 17 "micro_ros_stm32cubemx_utils/microros_static_library/libmicroros/microros_include/rmw/sec
 610              		.file 18 "micro_ros_stm32cubemx_utils/microros_static_library/libmicroros/microros_include/rmw/ini
 611              		.file 19 "micro_ros_stm32cubemx_utils/microros_static_library/libmicroros/microros_include/rcutils
 612              		.file 20 "micro_ros_stm32cubemx_utils/microros_static_library/libmicroros/microros_include/rmw/tim
 613              		.file 21 "micro_ros_stm32cubemx_utils/microros_static_library/libmicroros/microros_include/rmw/typ
 614              		.file 22 "micro_ros_stm32cubemx_utils/microros_static_library/libmicroros/microros_include/rcl/typ
 615              		.file 23 "micro_ros_stm32cubemx_utils/microros_static_library/libmicroros/microros_include/rcl/ini
 616              		.file 24 "micro_ros_stm32cubemx_utils/microros_static_library/libmicroros/microros_include/rcl/con
 617              		.file 25 "micro_ros_stm32cubemx_utils/microros_static_library/libmicroros/microros_include/rcl/gua
 618              		.file 26 "micro_ros_stm32cubemx_utils/microros_static_library/libmicroros/microros_include/rcl/nod
 619              		.file 27 "micro_ros_stm32cubemx_utils/microros_static_library/libmicroros/microros_include/rosidl_
 620              		.file 28 "micro_ros_stm32cubemx_utils/microros_static_library/libmicroros/microros_include/rcl/tim
 621              		.file 29 "micro_ros_stm32cubemx_utils/microros_static_library/libmicroros/microros_include/rcl/pub
 622              		.file 30 "micro_ros_stm32cubemx_utils/microros_static_library/libmicroros/microros_include/rcl/sub
 623              		.file 31 "micro_ros_stm32cubemx_utils/microros_static_library/libmicroros/microros_include/rcl/cli
 624              		.file 32 "micro_ros_stm32cubemx_utils/microros_static_library/libmicroros/microros_include/rcl/ser
 625              		.file 33 "micro_ros_stm32cubemx_utils/microros_static_library/libmicroros/microros_include/rmw/qos
 626              		.file 34 "micro_ros_stm32cubemx_utils/microros_static_library/libmicroros/microros_include/rcl/tim
 627              		.file 35 "micro_ros_stm32cubemx_utils/microros_static_library/libmicroros/microros_include/rcl/eve
 628              		.file 36 "micro_ros_stm32cubemx_utils/microros_static_library/libmicroros/microros_include/rcl/wai
 629              		.file 37 "micro_ros_stm32cubemx_utils/microros_static_library/libmicroros/microros_include/rclc/ty
 630              		.file 38 "micro_ros_stm32cubemx_utils/microros_static_library/libmicroros/microros_include/unique_
 631              		.file 39 "micro_ros_stm32cubemx_utils/microros_static_library/libmicroros/microros_include/builtin
 632              		.file 40 "micro_ros_stm32cubemx_utils/microros_static_library/libmicroros/microros_include/action_
 633              		.file 41 "micro_ros_stm32cubemx_utils/microros_static_library/libmicroros/microros_include/action_
 634              		.file 42 "micro_ros_stm32cubemx_utils/microros_static_library/libmicroros/microros_include/rcl_act
 635              		.file 43 "micro_ros_stm32cubemx_utils/microros_static_library/libmicroros/microros_include/rcl_act
 636              		.file 44 "micro_ros_stm32cubemx_utils/microros_static_library/libmicroros/microros_include/rcl_act
 637              		.file 45 "micro_ros_stm32cubemx_utils/microros_static_library/libmicroros/microros_include/rcl_act
 638              		.file 46 "micro_ros_stm32cubemx_utils/microros_static_library/libmicroros/microros_include/rclc/ac
 639              		.file 47 "micro_ros_stm32cubemx_utils/microros_static_library/libmicroros/microros_include/rclc/ac
 640              		.file 48 "micro_ros_stm32cubemx_utils/microros_static_library/libmicroros/microros_include/rclc/ac
 641              		.file 49 "micro_ros_stm32cubemx_utils/microros_static_library/libmicroros/microros_include/rclc/ex
 642              		.file 50 "micro_ros_stm32cubemx_utils/microros_static_library/libmicroros/microros_include/rclc/ex
 643              		.file 51 "Middlewares/Third_Party/FreeRTOS/Source/include/queue.h"
 644              		.file 52 "Middlewares/Third_Party/FreeRTOS/Source/include/semphr.h"
 645              		.file 53 "micro_ros_stm32cubemx_utils/microros_static_library/libmicroros/microros_include/uxr/cli
 646              		.file 54 "micro_ros_stm32cubemx_utils/microros_static_library/libmicroros/microros_include/uxr/cli
 647              		.file 55 "micro_ros_stm32cubemx_utils/microros_static_library/libmicroros/microros_include/uxr/cli
ARM GAS  C:\Users\SOROKO~1\AppData\Local\Temp\ccQ20GYb.s 			page 19


 648              		.file 56 "micro_ros_stm32cubemx_utils/microros_static_library/libmicroros/microros_include/uxr/cli
 649              		.file 57 "micro_ros_stm32cubemx_utils/microros_static_library/libmicroros/microros_include/rosidl_
 650              		.file 58 "micro_ros_stm32cubemx_utils/microros_static_library/libmicroros/microros_include/micro_r
 651              		.file 59 "micro_ros_stm32cubemx_utils/microros_static_library/libmicroros/microros_include/std_msg
 652              		.file 60 "micro_ros_stm32cubemx_utils/microros_static_library/libmicroros/microros_include/std_msg
 653              		.file 61 "micro_ros_stm32cubemx_utils/microros_static_library/libmicroros/microros_include/rclc/pu
 654              		.file 62 "Middlewares/Third_Party/FreeRTOS/Source/include/task.h"
 655              		.file 63 "micro_ros_stm32cubemx_utils/microros_static_library/libmicroros/microros_include/std_msg
 656              		.file 64 "micro_ros_stm32cubemx_utils/microros_static_library/libmicroros/microros_include/rclc/no
 657              		.file 65 "C:\\ST\\STM32CubeIDE_1.9.0\\STM32CubeIDE\\plugins\\com.st.stm32cube.ide.mcu.externaltool
 658              		.file 66 "micro_ros_stm32cubemx_utils/microros_static_library/libmicroros/microros_include/rclc/in
 659              		.file 67 "micro_ros_stm32cubemx_utils/microros_static_library/libmicroros/microros_include/rmw_mic
 660              		.file 68 "micro_ros_stm32cubemx_utils/microros_static_library/libmicroros/microros_include/rmw_mic
ARM GAS  C:\Users\SOROKO~1\AppData\Local\Temp\ccQ20GYb.s 			page 20


DEFINED SYMBOLS
                            *ABS*:0000000000000000 app_freertos.c
C:\Users\SOROKO~1\AppData\Local\Temp\ccQ20GYb.s:20     .rodata.StartDefaultTask.str1.4:0000000000000000 $d
C:\Users\SOROKO~1\AppData\Local\Temp\ccQ20GYb.s:30     .text.StartDefaultTask:0000000000000000 $t
C:\Users\SOROKO~1\AppData\Local\Temp\ccQ20GYb.s:36     .text.StartDefaultTask:0000000000000000 StartDefaultTask
C:\Users\SOROKO~1\AppData\Local\Temp\ccQ20GYb.s:204    .text.StartDefaultTask:00000000000000e0 $d
C:\Users\SOROKO~1\AppData\Local\Temp\ccQ20GYb.s:227    .text.StartTask09:0000000000000000 $t
C:\Users\SOROKO~1\AppData\Local\Temp\ccQ20GYb.s:233    .text.StartTask09:0000000000000000 StartTask09
C:\Users\SOROKO~1\AppData\Local\Temp\ccQ20GYb.s:275    .text.StartTask09:000000000000001c $d
C:\Users\SOROKO~1\AppData\Local\Temp\ccQ20GYb.s:281    .text.StartTask10:0000000000000000 $t
C:\Users\SOROKO~1\AppData\Local\Temp\ccQ20GYb.s:287    .text.StartTask10:0000000000000000 StartTask10
C:\Users\SOROKO~1\AppData\Local\Temp\ccQ20GYb.s:314    .text.MX_FREERTOS_Init:0000000000000000 $t
C:\Users\SOROKO~1\AppData\Local\Temp\ccQ20GYb.s:320    .text.MX_FREERTOS_Init:0000000000000000 MX_FREERTOS_Init
C:\Users\SOROKO~1\AppData\Local\Temp\ccQ20GYb.s:376    .text.MX_FREERTOS_Init:000000000000003c $d
C:\Users\SOROKO~1\AppData\Local\Temp\ccQ20GYb.s:391    .text.jc_sub_cb:0000000000000000 $t
C:\Users\SOROKO~1\AppData\Local\Temp\ccQ20GYb.s:397    .text.jc_sub_cb:0000000000000000 jc_sub_cb
C:\Users\SOROKO~1\AppData\Local\Temp\ccQ20GYb.s:520    .bss.msg_in:0000000000000000 msg_in
C:\Users\SOROKO~1\AppData\Local\Temp\ccQ20GYb.s:527    .bss.msg_out:0000000000000000 msg_out
C:\Users\SOROKO~1\AppData\Local\Temp\ccQ20GYb.s:514    .bss.msg:0000000000000000 msg
C:\Users\SOROKO~1\AppData\Local\Temp\ccQ20GYb.s:540    .bss.rc:0000000000000000 rc
C:\Users\SOROKO~1\AppData\Local\Temp\ccQ20GYb.s:475    .bss.init_options:0000000000000000 init_options
C:\Users\SOROKO~1\AppData\Local\Temp\ccQ20GYb.s:534    .bss.node:0000000000000000 node
C:\Users\SOROKO~1\AppData\Local\Temp\ccQ20GYb.s:461    .bss.allocator:0000000000000000 allocator
C:\Users\SOROKO~1\AppData\Local\Temp\ccQ20GYb.s:547    .bss.support:0000000000000000 support
C:\Users\SOROKO~1\AppData\Local\Temp\ccQ20GYb.s:495    .bss.jc_executor:0000000000000000 jc_executor
C:\Users\SOROKO~1\AppData\Local\Temp\ccQ20GYb.s:508    .bss.jc_subscriber:0000000000000000 jc_subscriber
C:\Users\SOROKO~1\AppData\Local\Temp\ccQ20GYb.s:502    .bss.jc_publisher:0000000000000000 jc_publisher
C:\Users\SOROKO~1\AppData\Local\Temp\ccQ20GYb.s:554    .rodata.PublisherSemaphore_attributes:0000000000000000 PublisherSemaphore_attributes
C:\Users\SOROKO~1\AppData\Local\Temp\ccQ20GYb.s:423    .rodata.str1.4:0000000000000000 $d
C:\Users\SOROKO~1\AppData\Local\Temp\ccQ20GYb.s:447    .bss.PublisherSemaphoreControlBlock:0000000000000000 PublisherSemaphoreControlBlock
C:\Users\SOROKO~1\AppData\Local\Temp\ccQ20GYb.s:454    .bss.PublisherSemaphoreHandle:0000000000000000 PublisherSemaphoreHandle
C:\Users\SOROKO~1\AppData\Local\Temp\ccQ20GYb.s:586    .rodata.jcSubscriber_attributes:0000000000000000 jcSubscriber_attributes
C:\Users\SOROKO~1\AppData\Local\Temp\ccQ20GYb.s:489    .bss.jcSubscriberHandle:0000000000000000 jcSubscriberHandle
C:\Users\SOROKO~1\AppData\Local\Temp\ccQ20GYb.s:575    .rodata.jcPublisher_attributes:0000000000000000 jcPublisher_attributes
C:\Users\SOROKO~1\AppData\Local\Temp\ccQ20GYb.s:482    .bss.jcPublisherHandle:0000000000000000 jcPublisherHandle
C:\Users\SOROKO~1\AppData\Local\Temp\ccQ20GYb.s:564    .rodata.defaultTask_attributes:0000000000000000 defaultTask_attributes
C:\Users\SOROKO~1\AppData\Local\Temp\ccQ20GYb.s:468    .bss.defaultTaskHandle:0000000000000000 defaultTaskHandle
C:\Users\SOROKO~1\AppData\Local\Temp\ccQ20GYb.s:444    .bss.PublisherSemaphoreControlBlock:0000000000000000 $d
C:\Users\SOROKO~1\AppData\Local\Temp\ccQ20GYb.s:450    .bss.PublisherSemaphoreHandle:0000000000000000 $d
C:\Users\SOROKO~1\AppData\Local\Temp\ccQ20GYb.s:457    .bss.allocator:0000000000000000 $d
C:\Users\SOROKO~1\AppData\Local\Temp\ccQ20GYb.s:464    .bss.defaultTaskHandle:0000000000000000 $d
C:\Users\SOROKO~1\AppData\Local\Temp\ccQ20GYb.s:471    .bss.init_options:0000000000000000 $d
C:\Users\SOROKO~1\AppData\Local\Temp\ccQ20GYb.s:478    .bss.jcPublisherHandle:0000000000000000 $d
C:\Users\SOROKO~1\AppData\Local\Temp\ccQ20GYb.s:485    .bss.jcSubscriberHandle:0000000000000000 $d
C:\Users\SOROKO~1\AppData\Local\Temp\ccQ20GYb.s:492    .bss.jc_executor:0000000000000000 $d
C:\Users\SOROKO~1\AppData\Local\Temp\ccQ20GYb.s:498    .bss.jc_publisher:0000000000000000 $d
C:\Users\SOROKO~1\AppData\Local\Temp\ccQ20GYb.s:505    .bss.jc_subscriber:0000000000000000 $d
C:\Users\SOROKO~1\AppData\Local\Temp\ccQ20GYb.s:511    .bss.msg:0000000000000000 $d
C:\Users\SOROKO~1\AppData\Local\Temp\ccQ20GYb.s:517    .bss.msg_in:0000000000000000 $d
C:\Users\SOROKO~1\AppData\Local\Temp\ccQ20GYb.s:523    .bss.msg_out:0000000000000000 $d
C:\Users\SOROKO~1\AppData\Local\Temp\ccQ20GYb.s:530    .bss.node:0000000000000000 $d
C:\Users\SOROKO~1\AppData\Local\Temp\ccQ20GYb.s:537    .bss.rc:0000000000000000 $d
C:\Users\SOROKO~1\AppData\Local\Temp\ccQ20GYb.s:543    .bss.support:0000000000000000 $d
C:\Users\SOROKO~1\AppData\Local\Temp\ccQ20GYb.s:550    .rodata.PublisherSemaphore_attributes:0000000000000000 $d
C:\Users\SOROKO~1\AppData\Local\Temp\ccQ20GYb.s:560    .rodata.defaultTask_attributes:0000000000000000 $d
C:\Users\SOROKO~1\AppData\Local\Temp\ccQ20GYb.s:571    .rodata.jcPublisher_attributes:0000000000000000 $d
C:\Users\SOROKO~1\AppData\Local\Temp\ccQ20GYb.s:582    .rodata.jcSubscriber_attributes:0000000000000000 $d
ARM GAS  C:\Users\SOROKO~1\AppData\Local\Temp\ccQ20GYb.s 			page 21



UNDEFINED SYMBOLS
rmw_uros_set_custom_transport
rcutils_get_zero_initialized_allocator
rcutils_set_default_allocator
rcutils_get_default_allocator
rcl_get_zero_initialized_init_options
rcl_init_options_set_domain_id
rcl_init_options_init
rcl_init_options_get_rmw_init_options
rmw_uros_options_set_client_key
rclc_support_init_with_options
sprintf
rclc_node_init_default
rosidl_typesupport_c__get_message_type_support_handle__std_msgs__msg__Int32
rclc_publisher_init_default
HAL_IWDG_Refresh
vTaskDelay
cubemx_transport_read
cubemx_transport_write
cubemx_transport_close
cubemx_transport_open
hfdcan1
microros_allocate
microros_deallocate
microros_reallocate
microros_zero_allocate
hiwdg
read_fault
rcl_publish
osDelay
osSemaphoreNew
osThreadNew
