ARM GAS  C:\Users\SOROKO~1\AppData\Local\Temp\ccN9YxIY.s 			page 1


   1              		.cpu cortex-m4
   2              		.arch armv7e-m
   3              		.fpu fpv4-sp-d16
   4              		.eabi_attribute 27, 1
   5              		.eabi_attribute 28, 1
   6              		.eabi_attribute 20, 1
   7              		.eabi_attribute 21, 1
   8              		.eabi_attribute 23, 3
   9              		.eabi_attribute 24, 1
  10              		.eabi_attribute 25, 1
  11              		.eabi_attribute 26, 1
  12              		.eabi_attribute 30, 1
  13              		.eabi_attribute 34, 1
  14              		.eabi_attribute 18, 4
  15              		.file	"fdcan_starter.c"
  16              		.text
  17              	.Ltext0:
  18              		.cfi_sections	.debug_frame
  19              		.section	.text.FDCAN_Filter_Config,"ax",%progbits
  20              		.align	1
  21              		.global	FDCAN_Filter_Config
  22              		.syntax unified
  23              		.thumb
  24              		.thumb_func
  26              	FDCAN_Filter_Config:
  27              	.LVL0:
  28              	.LFB132:
  29              		.file 1 "Core/Src/fdcan_starter.c"
   1:Core/Src/fdcan_starter.c **** /*
   2:Core/Src/fdcan_starter.c ****  * fdcan_starter.c
   3:Core/Src/fdcan_starter.c ****  *
   4:Core/Src/fdcan_starter.c ****  *  Created on: Nov 7, 2023
   5:Core/Src/fdcan_starter.c ****  *      Author: VR
   6:Core/Src/fdcan_starter.c ****  */
   7:Core/Src/fdcan_starter.c **** #include <fdcan.h>
   8:Core/Src/fdcan_starter.c **** #include "joint_config.h"
   9:Core/Src/fdcan_starter.c **** #include "main.h"
  10:Core/Src/fdcan_starter.c **** extern joint_config jc;
  11:Core/Src/fdcan_starter.c **** 
  12:Core/Src/fdcan_starter.c **** void FDCAN_Filter_Config(FDCAN_FilterTypeDef* sFilterConfig){
  30              		.loc 1 12 61 view -0
  31              		.cfi_startproc
  32              		@ args = 0, pretend = 0, frame = 0
  33              		@ frame_needed = 0, uses_anonymous_args = 0
  34              		@ link register save eliminated.
  13:Core/Src/fdcan_starter.c **** 	sFilterConfig->IdType = FDCAN_STANDARD_ID;
  35              		.loc 1 13 2 view .LVU1
  36              		.loc 1 13 24 is_stmt 0 view .LVU2
  37 0000 0023     		movs	r3, #0
  38 0002 0360     		str	r3, [r0]
  14:Core/Src/fdcan_starter.c **** 	sFilterConfig->FilterIndex = 0;
  39              		.loc 1 14 2 is_stmt 1 view .LVU3
  40              		.loc 1 14 29 is_stmt 0 view .LVU4
  41 0004 4360     		str	r3, [r0, #4]
  15:Core/Src/fdcan_starter.c **** 	sFilterConfig->FilterType = FDCAN_FILTER_MASK;
  42              		.loc 1 15 2 is_stmt 1 view .LVU5
  43              		.loc 1 15 28 is_stmt 0 view .LVU6
ARM GAS  C:\Users\SOROKO~1\AppData\Local\Temp\ccN9YxIY.s 			page 2


  44 0006 0223     		movs	r3, #2
  45 0008 8360     		str	r3, [r0, #8]
  16:Core/Src/fdcan_starter.c **** 	sFilterConfig->FilterConfig = FDCAN_FILTER_TO_RXFIFO0;
  46              		.loc 1 16 2 is_stmt 1 view .LVU7
  47              		.loc 1 16 30 is_stmt 0 view .LVU8
  48 000a 0123     		movs	r3, #1
  49 000c C360     		str	r3, [r0, #12]
  17:Core/Src/fdcan_starter.c **** 	sFilterConfig->FilterID1 = JOINTN + 20; //router_id set to 127
  50              		.loc 1 17 2 is_stmt 1 view .LVU9
  51              		.loc 1 17 27 is_stmt 0 view .LVU10
  52 000e 1523     		movs	r3, #21
  53 0010 0361     		str	r3, [r0, #16]
  18:Core/Src/fdcan_starter.c **** 	sFilterConfig->FilterID2 = 0x7FF; //;0x1FFFFFFF;
  54              		.loc 1 18 2 is_stmt 1 view .LVU11
  55              		.loc 1 18 27 is_stmt 0 view .LVU12
  56 0012 40F2FF73 		movw	r3, #2047
  57 0016 4361     		str	r3, [r0, #20]
  19:Core/Src/fdcan_starter.c **** }
  58              		.loc 1 19 1 view .LVU13
  59 0018 7047     		bx	lr
  60              		.cfi_endproc
  61              	.LFE132:
  63              		.section	.text.FDCAN_Header_Config,"ax",%progbits
  64              		.align	1
  65              		.global	FDCAN_Header_Config
  66              		.syntax unified
  67              		.thumb
  68              		.thumb_func
  70              	FDCAN_Header_Config:
  71              	.LVL1:
  72              	.LFB133:
  20:Core/Src/fdcan_starter.c **** 
  21:Core/Src/fdcan_starter.c **** void FDCAN_Header_Config(FDCAN_TxHeaderTypeDef* TxHeader){
  73              		.loc 1 21 58 is_stmt 1 view -0
  74              		.cfi_startproc
  75              		@ args = 0, pretend = 0, frame = 0
  76              		@ frame_needed = 0, uses_anonymous_args = 0
  77              		@ link register save eliminated.
  22:Core/Src/fdcan_starter.c **** 	TxHeader->Identifier = JOINTN;
  78              		.loc 1 22 2 view .LVU15
  79              		.loc 1 22 23 is_stmt 0 view .LVU16
  80 0000 0123     		movs	r3, #1
  81 0002 0360     		str	r3, [r0]
  23:Core/Src/fdcan_starter.c **** 
  24:Core/Src/fdcan_starter.c **** 	TxHeader->IdType = FDCAN_STANDARD_ID; // 11-–±–∏—Ç–Ω—ã–π ID
  82              		.loc 1 24 2 is_stmt 1 view .LVU17
  83              		.loc 1 24 19 is_stmt 0 view .LVU18
  84 0004 0023     		movs	r3, #0
  85 0006 4360     		str	r3, [r0, #4]
  25:Core/Src/fdcan_starter.c **** 
  26:Core/Src/fdcan_starter.c **** 	TxHeader->TxFrameType = FDCAN_DATA_FRAME; // –ü–µ—Ä–µ–¥–∞—á–∞ –æ–±—ã—á–Ω–æ–≥–æ –∫–∞–¥—Ä–∞ –¥–∞–Ω–Ω
  86              		.loc 1 26 2 is_stmt 1 view .LVU19
  87              		.loc 1 26 24 is_stmt 0 view .LVU20
  88 0008 8360     		str	r3, [r0, #8]
  27:Core/Src/fdcan_starter.c **** 
  28:Core/Src/fdcan_starter.c **** 	TxHeader->DataLength = FDCAN_DLC_BYTES_8; // –î–ª–∏–Ω–∞ –¥–∞–Ω–Ω—ã—Ö 8 –±–∞–π—Ç
  89              		.loc 1 28 2 is_stmt 1 view .LVU21
ARM GAS  C:\Users\SOROKO~1\AppData\Local\Temp\ccN9YxIY.s 			page 3


  90              		.loc 1 28 23 is_stmt 0 view .LVU22
  91 000a 4FF40022 		mov	r2, #524288
  92 000e C260     		str	r2, [r0, #12]
  29:Core/Src/fdcan_starter.c **** 
  30:Core/Src/fdcan_starter.c **** 	TxHeader->ErrorStateIndicator = FDCAN_ESI_ACTIVE; // –ò–Ω–¥–∏–∫–∞—Ç–æ—Ä –æ—à–∏–±–æ–∫ –∞–∫—Ç–∏–≤–µ–
  93              		.loc 1 30 2 is_stmt 1 view .LVU23
  94              		.loc 1 30 32 is_stmt 0 view .LVU24
  95 0010 0361     		str	r3, [r0, #16]
  31:Core/Src/fdcan_starter.c **** 
  32:Core/Src/fdcan_starter.c **** 	TxHeader->BitRateSwitch = FDCAN_BRS_ON; // C –ø–µ—Ä–µ–∫–ª—é—á–µ–Ω–∏—è —á–∞—Å—Ç–æ—Ç—ã –ø–µ—Ä–µ–¥–∞—
  96              		.loc 1 32 2 is_stmt 1 view .LVU25
  97              		.loc 1 32 26 is_stmt 0 view .LVU26
  98 0012 4FF48012 		mov	r2, #1048576
  99 0016 4261     		str	r2, [r0, #20]
  33:Core/Src/fdcan_starter.c **** 
  34:Core/Src/fdcan_starter.c **** 	TxHeader->FDFormat = FDCAN_FD_CAN; // –§–æ—Ä–º–∞—Ç –∫–∞–¥—Ä–∞ CANFD
 100              		.loc 1 34 2 is_stmt 1 view .LVU27
 101              		.loc 1 34 21 is_stmt 0 view .LVU28
 102 0018 4FF40012 		mov	r2, #2097152
 103 001c 8261     		str	r2, [r0, #24]
  35:Core/Src/fdcan_starter.c **** 
  36:Core/Src/fdcan_starter.c **** 	TxHeader->TxEventFifoControl = FDCAN_NO_TX_EVENTS; // –ù–µ —Å–æ—Ö—Ä–∞–Ω–µ–Ω–∏–µ –ø–∞—Ä–∞–º–µ—Ç—Ä–æ
 104              		.loc 1 36 2 is_stmt 1 view .LVU29
 105              		.loc 1 36 31 is_stmt 0 view .LVU30
 106 001e C361     		str	r3, [r0, #28]
  37:Core/Src/fdcan_starter.c **** 
  38:Core/Src/fdcan_starter.c **** 	TxHeader->MessageMarker = 0x52;// –ú–µ—Ç–∫–∞ —Å–æ–æ–±—â–µ–Ω–∏—è
 107              		.loc 1 38 2 is_stmt 1 view .LVU31
 108              		.loc 1 38 26 is_stmt 0 view .LVU32
 109 0020 5223     		movs	r3, #82
 110 0022 0362     		str	r3, [r0, #32]
  39:Core/Src/fdcan_starter.c **** }
 111              		.loc 1 39 1 view .LVU33
 112 0024 7047     		bx	lr
 113              		.cfi_endproc
 114              	.LFE133:
 116              		.section	.text.FDCAN_Starter,"ax",%progbits
 117              		.align	1
 118              		.global	FDCAN_Starter
 119              		.syntax unified
 120              		.thumb
 121              		.thumb_func
 123              	FDCAN_Starter:
 124              	.LVL2:
 125              	.LFB134:
  40:Core/Src/fdcan_starter.c **** 
  41:Core/Src/fdcan_starter.c **** void FDCAN_Starter(FDCAN_HandleTypeDef* hfdcan, FDCAN_FilterTypeDef* sFilterConfig){
 126              		.loc 1 41 84 is_stmt 1 view -0
 127              		.cfi_startproc
 128              		@ args = 0, pretend = 0, frame = 0
 129              		@ frame_needed = 0, uses_anonymous_args = 0
 130              		.loc 1 41 84 is_stmt 0 view .LVU35
 131 0000 10B5     		push	{r4, lr}
 132              	.LCFI0:
 133              		.cfi_def_cfa_offset 8
 134              		.cfi_offset 4, -8
 135              		.cfi_offset 14, -4
ARM GAS  C:\Users\SOROKO~1\AppData\Local\Temp\ccN9YxIY.s 			page 4


 136 0002 82B0     		sub	sp, sp, #8
 137              	.LCFI1:
 138              		.cfi_def_cfa_offset 16
 139 0004 0446     		mov	r4, r0
  42:Core/Src/fdcan_starter.c **** 	if (HAL_FDCAN_ConfigFilter(hfdcan, sFilterConfig) != HAL_OK)
 140              		.loc 1 42 2 is_stmt 1 view .LVU36
 141              		.loc 1 42 6 is_stmt 0 view .LVU37
 142 0006 FFF7FEFF 		bl	HAL_FDCAN_ConfigFilter
 143              	.LVL3:
 144              		.loc 1 42 5 view .LVU38
 145 000a E8B9     		cbnz	r0, .L11
 146              	.L4:
  43:Core/Src/fdcan_starter.c **** 	{
  44:Core/Src/fdcan_starter.c **** 	  Error_Handler();
  45:Core/Src/fdcan_starter.c **** 	}
  46:Core/Src/fdcan_starter.c **** 
  47:Core/Src/fdcan_starter.c **** 	if (HAL_FDCAN_ConfigGlobalFilter(hfdcan, FDCAN_REJECT, FDCAN_REJECT, FDCAN_FILTER_REMOTE, FDCAN_FI
 147              		.loc 1 47 2 is_stmt 1 view .LVU39
 148              		.loc 1 47 6 is_stmt 0 view .LVU40
 149 000c 0023     		movs	r3, #0
 150 000e 0093     		str	r3, [sp]
 151 0010 0222     		movs	r2, #2
 152 0012 1146     		mov	r1, r2
 153 0014 2046     		mov	r0, r4
 154 0016 FFF7FEFF 		bl	HAL_FDCAN_ConfigGlobalFilter
 155              	.LVL4:
 156              		.loc 1 47 5 view .LVU41
 157 001a C0B9     		cbnz	r0, .L12
 158              	.L5:
  48:Core/Src/fdcan_starter.c **** 	{
  49:Core/Src/fdcan_starter.c **** 	  Error_Handler();
  50:Core/Src/fdcan_starter.c **** 	}
  51:Core/Src/fdcan_starter.c **** 
  52:Core/Src/fdcan_starter.c **** 
  53:Core/Src/fdcan_starter.c **** 	if( HAL_FDCAN_ConfigTxDelayCompensation(hfdcan, 5, 0) != HAL_OK)
 159              		.loc 1 53 2 is_stmt 1 view .LVU42
 160              		.loc 1 53 6 is_stmt 0 view .LVU43
 161 001c 0022     		movs	r2, #0
 162 001e 0521     		movs	r1, #5
 163 0020 2046     		mov	r0, r4
 164 0022 FFF7FEFF 		bl	HAL_FDCAN_ConfigTxDelayCompensation
 165              	.LVL5:
 166              		.loc 1 53 4 view .LVU44
 167 0026 A8B9     		cbnz	r0, .L13
 168              	.L6:
  54:Core/Src/fdcan_starter.c **** 	{
  55:Core/Src/fdcan_starter.c **** 		Error_Handler();
  56:Core/Src/fdcan_starter.c **** 	}
  57:Core/Src/fdcan_starter.c **** 	if( HAL_FDCAN_EnableTxDelayCompensation(hfdcan) != HAL_OK)
 169              		.loc 1 57 2 is_stmt 1 view .LVU45
 170              		.loc 1 57 6 is_stmt 0 view .LVU46
 171 0028 2046     		mov	r0, r4
 172 002a FFF7FEFF 		bl	HAL_FDCAN_EnableTxDelayCompensation
 173              	.LVL6:
 174              		.loc 1 57 4 view .LVU47
 175 002e A0B9     		cbnz	r0, .L14
 176              	.L7:
ARM GAS  C:\Users\SOROKO~1\AppData\Local\Temp\ccN9YxIY.s 			page 5


  58:Core/Src/fdcan_starter.c **** 	{
  59:Core/Src/fdcan_starter.c **** 		Error_Handler();
  60:Core/Src/fdcan_starter.c **** 	}
  61:Core/Src/fdcan_starter.c **** 
  62:Core/Src/fdcan_starter.c **** 
  63:Core/Src/fdcan_starter.c **** 	if (HAL_FDCAN_ActivateNotification(hfdcan, FDCAN_IT_RX_FIFO0_NEW_MESSAGE, 0) != HAL_OK)
 177              		.loc 1 63 2 is_stmt 1 view .LVU48
 178              		.loc 1 63 6 is_stmt 0 view .LVU49
 179 0030 0022     		movs	r2, #0
 180 0032 0121     		movs	r1, #1
 181 0034 2046     		mov	r0, r4
 182 0036 FFF7FEFF 		bl	HAL_FDCAN_ActivateNotification
 183              	.LVL7:
 184              		.loc 1 63 5 view .LVU50
 185 003a 88B9     		cbnz	r0, .L15
 186              	.L8:
  64:Core/Src/fdcan_starter.c **** 	{
  65:Core/Src/fdcan_starter.c **** 	  Error_Handler();
  66:Core/Src/fdcan_starter.c **** 	}
  67:Core/Src/fdcan_starter.c **** 	if( HAL_FDCAN_Start(hfdcan) != HAL_OK )
 187              		.loc 1 67 2 is_stmt 1 view .LVU51
 188              		.loc 1 67 6 is_stmt 0 view .LVU52
 189 003c 2046     		mov	r0, r4
 190 003e FFF7FEFF 		bl	HAL_FDCAN_Start
 191              	.LVL8:
 192              		.loc 1 67 4 view .LVU53
 193 0042 80B9     		cbnz	r0, .L16
 194              	.L3:
  68:Core/Src/fdcan_starter.c **** 	{
  69:Core/Src/fdcan_starter.c **** 		Error_Handler();
  70:Core/Src/fdcan_starter.c **** 	}
  71:Core/Src/fdcan_starter.c **** }
 195              		.loc 1 71 1 view .LVU54
 196 0044 02B0     		add	sp, sp, #8
 197              	.LCFI2:
 198              		.cfi_remember_state
 199              		.cfi_def_cfa_offset 8
 200              		@ sp needed
 201 0046 10BD     		pop	{r4, pc}
 202              	.LVL9:
 203              	.L11:
 204              	.LCFI3:
 205              		.cfi_restore_state
  44:Core/Src/fdcan_starter.c **** 	}
 206              		.loc 1 44 4 is_stmt 1 view .LVU55
 207 0048 FFF7FEFF 		bl	Error_Handler
 208              	.LVL10:
 209 004c DEE7     		b	.L4
 210              	.L12:
  49:Core/Src/fdcan_starter.c **** 	}
 211              		.loc 1 49 4 view .LVU56
 212 004e FFF7FEFF 		bl	Error_Handler
 213              	.LVL11:
 214 0052 E3E7     		b	.L5
 215              	.L13:
  55:Core/Src/fdcan_starter.c **** 	}
 216              		.loc 1 55 3 view .LVU57
ARM GAS  C:\Users\SOROKO~1\AppData\Local\Temp\ccN9YxIY.s 			page 6


 217 0054 FFF7FEFF 		bl	Error_Handler
 218              	.LVL12:
 219 0058 E6E7     		b	.L6
 220              	.L14:
  59:Core/Src/fdcan_starter.c **** 	}
 221              		.loc 1 59 3 view .LVU58
 222 005a FFF7FEFF 		bl	Error_Handler
 223              	.LVL13:
 224 005e E7E7     		b	.L7
 225              	.L15:
  65:Core/Src/fdcan_starter.c **** 	}
 226              		.loc 1 65 4 view .LVU59
 227 0060 FFF7FEFF 		bl	Error_Handler
 228              	.LVL14:
 229 0064 EAE7     		b	.L8
 230              	.L16:
  69:Core/Src/fdcan_starter.c **** 	}
 231              		.loc 1 69 3 view .LVU60
 232 0066 FFF7FEFF 		bl	Error_Handler
 233              	.LVL15:
 234              		.loc 1 71 1 is_stmt 0 view .LVU61
 235 006a EBE7     		b	.L3
 236              		.cfi_endproc
 237              	.LFE134:
 239              		.text
 240              	.Letext0:
 241              		.file 2 "C:\\ST\\STM32CubeIDE_1.9.0\\STM32CubeIDE\\plugins\\com.st.stm32cube.ide.mcu.externaltools
 242              		.file 3 "C:\\ST\\STM32CubeIDE_1.9.0\\STM32CubeIDE\\plugins\\com.st.stm32cube.ide.mcu.externaltools
 243              		.file 4 "Drivers/CMSIS/Device/ST/STM32G4xx/Include/stm32g474xx.h"
 244              		.file 5 "Drivers/CMSIS/Device/ST/STM32G4xx/Include/stm32g4xx.h"
 245              		.file 6 "Drivers/STM32G4xx_HAL_Driver/Inc/stm32g4xx_hal_def.h"
 246              		.file 7 "Drivers/STM32G4xx_HAL_Driver/Inc/stm32g4xx_hal_fdcan.h"
 247              		.file 8 "Core/Inc/main.h"
ARM GAS  C:\Users\SOROKO~1\AppData\Local\Temp\ccN9YxIY.s 			page 7


DEFINED SYMBOLS
                            *ABS*:0000000000000000 fdcan_starter.c
C:\Users\SOROKO~1\AppData\Local\Temp\ccN9YxIY.s:20     .text.FDCAN_Filter_Config:0000000000000000 $t
C:\Users\SOROKO~1\AppData\Local\Temp\ccN9YxIY.s:26     .text.FDCAN_Filter_Config:0000000000000000 FDCAN_Filter_Config
C:\Users\SOROKO~1\AppData\Local\Temp\ccN9YxIY.s:64     .text.FDCAN_Header_Config:0000000000000000 $t
C:\Users\SOROKO~1\AppData\Local\Temp\ccN9YxIY.s:70     .text.FDCAN_Header_Config:0000000000000000 FDCAN_Header_Config
C:\Users\SOROKO~1\AppData\Local\Temp\ccN9YxIY.s:117    .text.FDCAN_Starter:0000000000000000 $t
C:\Users\SOROKO~1\AppData\Local\Temp\ccN9YxIY.s:123    .text.FDCAN_Starter:0000000000000000 FDCAN_Starter

UNDEFINED SYMBOLS
HAL_FDCAN_ConfigFilter
HAL_FDCAN_ConfigGlobalFilter
HAL_FDCAN_ConfigTxDelayCompensation
HAL_FDCAN_EnableTxDelayCompensation
HAL_FDCAN_ActivateNotification
HAL_FDCAN_Start
Error_Handler
