ARM GAS  C:\Users\SOROKO~1\AppData\Local\Temp\ccjtlBYc.s 			page 1


   1              		.cpu cortex-m4
   2              		.arch armv7e-m
   3              		.fpu fpv4-sp-d16
   4              		.eabi_attribute 27, 1
   5              		.eabi_attribute 28, 1
   6              		.eabi_attribute 20, 1
   7              		.eabi_attribute 21, 1
   8              		.eabi_attribute 23, 3
   9              		.eabi_attribute 24, 1
  10              		.eabi_attribute 25, 1
  11              		.eabi_attribute 26, 1
  12              		.eabi_attribute 30, 1
  13              		.eabi_attribute 34, 1
  14              		.eabi_attribute 18, 4
  15              		.file	"joint_config.c"
  16              		.text
  17              	.Ltext0:
  18              		.cfi_sections	.debug_frame
  19              		.section	.text.joint_config_assembler,"ax",%progbits
  20              		.align	1
  21              		.global	joint_config_assembler
  22              		.syntax unified
  23              		.thumb
  24              		.thumb_func
  26              	joint_config_assembler:
  27              	.LVL0:
  28              	.LFB138:
  29              		.file 1 "Core/Src/joint_config.c"
   1:Core/Src/joint_config.c **** /*
   2:Core/Src/joint_config.c ****  * joint_config.c
   3:Core/Src/joint_config.c ****  *
   4:Core/Src/joint_config.c ****  *  Created on: Dec 15, 2023
   5:Core/Src/joint_config.c ****  *      Author: Sorokonog
   6:Core/Src/joint_config.c ****  */
   7:Core/Src/joint_config.c **** 
   8:Core/Src/joint_config.c **** #include "cmsis_os.h"
   9:Core/Src/joint_config.c **** #include "joint_config.h"
  10:Core/Src/joint_config.c **** #include "at24_eeprom.h"
  11:Core/Src/joint_config.c **** #include "main.h"
  12:Core/Src/joint_config.c **** 
  13:Core/Src/joint_config.c **** void joint_config_main_part_init(joint_config * jconf)
  14:Core/Src/joint_config.c **** {
  15:Core/Src/joint_config.c **** 	  joint_number_selector(jconf);
  16:Core/Src/joint_config.c **** 	  domain_id_selector(jconf);
  17:Core/Src/joint_config.c **** }
  18:Core/Src/joint_config.c **** 
  19:Core/Src/joint_config.c **** 
  20:Core/Src/joint_config.c **** void joint_config_freertos_init(joint_config * jconf)
  21:Core/Src/joint_config.c **** {
  22:Core/Src/joint_config.c **** 	//TODO to make clear why JC not transfered from main()
  23:Core/Src/joint_config.c **** 	joint_number_selector(jconf);
  24:Core/Src/joint_config.c **** 	domain_id_selector(jconf);
  25:Core/Src/joint_config.c **** 	if (&jconf->joint_number == 0)
  26:Core/Src/joint_config.c **** 	{
  27:Core/Src/joint_config.c **** 		joint_config_assembler(jconf);
  28:Core/Src/joint_config.c **** 		joint_config_write(jconf);
  29:Core/Src/joint_config.c **** 		return;
ARM GAS  C:\Users\SOROKO~1\AppData\Local\Temp\ccjtlBYc.s 			page 2


  30:Core/Src/joint_config.c **** 	}
  31:Core/Src/joint_config.c **** 	joint_config_read(jconf);
  32:Core/Src/joint_config.c **** }
  33:Core/Src/joint_config.c **** 
  34:Core/Src/joint_config.c **** void joint_config_assembler(joint_config * jconf)
  35:Core/Src/joint_config.c **** {
  30              		.loc 1 35 1 view -0
  31              		.cfi_startproc
  32              		@ args = 0, pretend = 0, frame = 0
  33              		@ frame_needed = 0, uses_anonymous_args = 0
  34              		@ link register save eliminated.
  36:Core/Src/joint_config.c **** 	jconf->domain_id = 0;
  35              		.loc 1 36 2 view .LVU1
  36              		.loc 1 36 19 is_stmt 0 view .LVU2
  37 0000 0022     		movs	r2, #0
  38 0002 0270     		strb	r2, [r0]
  37:Core/Src/joint_config.c **** 	jconf->full_steps = 0;
  39              		.loc 1 37 2 is_stmt 1 view .LVU3
  40              		.loc 1 37 20 is_stmt 0 view .LVU4
  41 0004 4260     		str	r2, [r0, #4]
  38:Core/Src/joint_config.c **** 	jconf->gear_ratio = 0.0;
  42              		.loc 1 38 2 is_stmt 1 view .LVU5
  43              		.loc 1 38 20 is_stmt 0 view .LVU6
  44 0006 0023     		movs	r3, #0
  45 0008 8360     		str	r3, [r0, #8]	@ float
  39:Core/Src/joint_config.c **** 	jconf->lower_limit_enc = 0.0;
  46              		.loc 1 39 2 is_stmt 1 view .LVU7
  47              		.loc 1 39 25 is_stmt 0 view .LVU8
  48 000a 8361     		str	r3, [r0, #24]	@ float
  40:Core/Src/joint_config.c **** 	jconf->lower_limit_ticks = 0;
  49              		.loc 1 40 2 is_stmt 1 view .LVU9
  50              		.loc 1 40 27 is_stmt 0 view .LVU10
  51 000c 0261     		str	r2, [r0, #16]
  41:Core/Src/joint_config.c **** 	jconf->motor_type = 0;
  52              		.loc 1 41 2 is_stmt 1 view .LVU11
  53              		.loc 1 41 20 is_stmt 0 view .LVU12
  54 000e 8270     		strb	r2, [r0, #2]
  42:Core/Src/joint_config.c **** 	jconf->upper_limit_enc = 0.0;
  55              		.loc 1 42 2 is_stmt 1 view .LVU13
  56              		.loc 1 42 25 is_stmt 0 view .LVU14
  57 0010 4361     		str	r3, [r0, #20]	@ float
  43:Core/Src/joint_config.c **** 	jconf->upper_limit_ticks = 0;
  58              		.loc 1 43 2 is_stmt 1 view .LVU15
  59              		.loc 1 43 27 is_stmt 0 view .LVU16
  60 0012 C260     		str	r2, [r0, #12]
  44:Core/Src/joint_config.c **** 	jconf->zero_enc = 0.0;
  61              		.loc 1 44 2 is_stmt 1 view .LVU17
  62              		.loc 1 44 18 is_stmt 0 view .LVU18
  63 0014 C361     		str	r3, [r0, #28]	@ float
  45:Core/Src/joint_config.c **** 	jconf->upper_limit_effort = 0.0;
  64              		.loc 1 45 2 is_stmt 1 view .LVU19
  65              		.loc 1 45 28 is_stmt 0 view .LVU20
  66 0016 0362     		str	r3, [r0, #32]	@ float
  46:Core/Src/joint_config.c **** 	jconf->direction = 1;
  67              		.loc 1 46 2 is_stmt 1 view .LVU21
  68              		.loc 1 46 19 is_stmt 0 view .LVU22
  69 0018 0123     		movs	r3, #1
ARM GAS  C:\Users\SOROKO~1\AppData\Local\Temp\ccjtlBYc.s 			page 3


  70 001a C370     		strb	r3, [r0, #3]
  47:Core/Src/joint_config.c **** }
  71              		.loc 1 47 1 view .LVU23
  72 001c 7047     		bx	lr
  73              		.cfi_endproc
  74              	.LFE138:
  76              		.section	.text.joint_number_selector,"ax",%progbits
  77              		.align	1
  78              		.global	joint_number_selector
  79              		.syntax unified
  80              		.thumb
  81              		.thumb_func
  83              	joint_number_selector:
  84              	.LVL1:
  85              	.LFB139:
  48:Core/Src/joint_config.c **** 
  49:Core/Src/joint_config.c **** 
  50:Core/Src/joint_config.c **** 
  51:Core/Src/joint_config.c **** void joint_number_selector(joint_config * jc)
  52:Core/Src/joint_config.c **** {
  86              		.loc 1 52 1 is_stmt 1 view -0
  87              		.cfi_startproc
  88              		@ args = 0, pretend = 0, frame = 0
  89              		@ frame_needed = 0, uses_anonymous_args = 0
  90              		.loc 1 52 1 is_stmt 0 view .LVU25
  91 0000 10B5     		push	{r4, lr}
  92              	.LCFI0:
  93              		.cfi_def_cfa_offset 8
  94              		.cfi_offset 4, -8
  95              		.cfi_offset 14, -4
  96 0002 0446     		mov	r4, r0
  53:Core/Src/joint_config.c **** 	if(HAL_GPIO_ReadPin(DIP_1_GPIO_Port, DIP_1_Pin))
  97              		.loc 1 53 2 is_stmt 1 view .LVU26
  98              		.loc 1 53 5 is_stmt 0 view .LVU27
  99 0004 4FF48061 		mov	r1, #1024
 100 0008 1B48     		ldr	r0, .L11
 101              	.LVL2:
 102              		.loc 1 53 5 view .LVU28
 103 000a FFF7FEFF 		bl	HAL_GPIO_ReadPin
 104              	.LVL3:
 105              		.loc 1 53 4 view .LVU29
 106 000e 10B1     		cbz	r0, .L3
  54:Core/Src/joint_config.c **** 	{
  55:Core/Src/joint_config.c **** 		jc->joint_number = 1;
 107              		.loc 1 55 3 is_stmt 1 view .LVU30
 108              		.loc 1 55 20 is_stmt 0 view .LVU31
 109 0010 0123     		movs	r3, #1
 110 0012 6370     		strb	r3, [r4, #1]
 111              	.L2:
  56:Core/Src/joint_config.c **** 	}
  57:Core/Src/joint_config.c **** 	else if(HAL_GPIO_ReadPin(DIP_2_GPIO_Port, DIP_2_Pin))
  58:Core/Src/joint_config.c **** 	{
  59:Core/Src/joint_config.c **** 		jc->joint_number = 2;
  60:Core/Src/joint_config.c **** 	}
  61:Core/Src/joint_config.c **** 	else if (HAL_GPIO_ReadPin(DIP_3_GPIO_Port, DIP_3_Pin))
  62:Core/Src/joint_config.c **** 	{
  63:Core/Src/joint_config.c **** 		jc->joint_number = 3;
ARM GAS  C:\Users\SOROKO~1\AppData\Local\Temp\ccjtlBYc.s 			page 4


  64:Core/Src/joint_config.c **** 	}
  65:Core/Src/joint_config.c **** 	else if (HAL_GPIO_ReadPin(DIP_4_GPIO_Port, DIP_4_Pin))
  66:Core/Src/joint_config.c **** 	{
  67:Core/Src/joint_config.c **** 		jc->joint_number = 4;
  68:Core/Src/joint_config.c **** 	}
  69:Core/Src/joint_config.c **** 	else if (HAL_GPIO_ReadPin(DIP_5_GPIO_Port, DIP_5_Pin))
  70:Core/Src/joint_config.c **** 	{
  71:Core/Src/joint_config.c **** 		jc->joint_number = 5;
  72:Core/Src/joint_config.c **** 	}
  73:Core/Src/joint_config.c **** 	else if (HAL_GPIO_ReadPin(DIP_6_GPIO_Port, DIP_6_Pin))
  74:Core/Src/joint_config.c **** 	{
  75:Core/Src/joint_config.c **** 		jc->joint_number = 6;
  76:Core/Src/joint_config.c **** 	}
  77:Core/Src/joint_config.c **** 	else
  78:Core/Src/joint_config.c **** 	{
  79:Core/Src/joint_config.c **** 		jc->joint_number = 0;
  80:Core/Src/joint_config.c **** 	}
  81:Core/Src/joint_config.c **** }
 112              		.loc 1 81 1 view .LVU32
 113 0014 10BD     		pop	{r4, pc}
 114              	.LVL4:
 115              	.L3:
  57:Core/Src/joint_config.c **** 	{
 116              		.loc 1 57 7 is_stmt 1 view .LVU33
  57:Core/Src/joint_config.c **** 	{
 117              		.loc 1 57 10 is_stmt 0 view .LVU34
 118 0016 4FF40061 		mov	r1, #2048
 119 001a 1748     		ldr	r0, .L11
 120 001c FFF7FEFF 		bl	HAL_GPIO_ReadPin
 121              	.LVL5:
  57:Core/Src/joint_config.c **** 	{
 122              		.loc 1 57 9 view .LVU35
 123 0020 10B1     		cbz	r0, .L5
  59:Core/Src/joint_config.c **** 	}
 124              		.loc 1 59 3 is_stmt 1 view .LVU36
  59:Core/Src/joint_config.c **** 	}
 125              		.loc 1 59 20 is_stmt 0 view .LVU37
 126 0022 0223     		movs	r3, #2
 127 0024 6370     		strb	r3, [r4, #1]
 128 0026 F5E7     		b	.L2
 129              	.L5:
  61:Core/Src/joint_config.c **** 	{
 130              		.loc 1 61 7 is_stmt 1 view .LVU38
  61:Core/Src/joint_config.c **** 	{
 131              		.loc 1 61 11 is_stmt 0 view .LVU39
 132 0028 4FF48051 		mov	r1, #4096
 133 002c 1248     		ldr	r0, .L11
 134 002e FFF7FEFF 		bl	HAL_GPIO_ReadPin
 135              	.LVL6:
  61:Core/Src/joint_config.c **** 	{
 136              		.loc 1 61 10 view .LVU40
 137 0032 10B1     		cbz	r0, .L6
  63:Core/Src/joint_config.c **** 	}
 138              		.loc 1 63 3 is_stmt 1 view .LVU41
  63:Core/Src/joint_config.c **** 	}
 139              		.loc 1 63 20 is_stmt 0 view .LVU42
 140 0034 0323     		movs	r3, #3
ARM GAS  C:\Users\SOROKO~1\AppData\Local\Temp\ccjtlBYc.s 			page 5


 141 0036 6370     		strb	r3, [r4, #1]
 142 0038 ECE7     		b	.L2
 143              	.L6:
  65:Core/Src/joint_config.c **** 	{
 144              		.loc 1 65 7 is_stmt 1 view .LVU43
  65:Core/Src/joint_config.c **** 	{
 145              		.loc 1 65 11 is_stmt 0 view .LVU44
 146 003a 4FF40051 		mov	r1, #8192
 147 003e 0E48     		ldr	r0, .L11
 148 0040 FFF7FEFF 		bl	HAL_GPIO_ReadPin
 149              	.LVL7:
  65:Core/Src/joint_config.c **** 	{
 150              		.loc 1 65 10 view .LVU45
 151 0044 10B1     		cbz	r0, .L7
  67:Core/Src/joint_config.c **** 	}
 152              		.loc 1 67 3 is_stmt 1 view .LVU46
  67:Core/Src/joint_config.c **** 	}
 153              		.loc 1 67 20 is_stmt 0 view .LVU47
 154 0046 0423     		movs	r3, #4
 155 0048 6370     		strb	r3, [r4, #1]
 156 004a E3E7     		b	.L2
 157              	.L7:
  69:Core/Src/joint_config.c **** 	{
 158              		.loc 1 69 7 is_stmt 1 view .LVU48
  69:Core/Src/joint_config.c **** 	{
 159              		.loc 1 69 11 is_stmt 0 view .LVU49
 160 004c 4FF48041 		mov	r1, #16384
 161 0050 0948     		ldr	r0, .L11
 162 0052 FFF7FEFF 		bl	HAL_GPIO_ReadPin
 163              	.LVL8:
  69:Core/Src/joint_config.c **** 	{
 164              		.loc 1 69 10 view .LVU50
 165 0056 10B1     		cbz	r0, .L8
  71:Core/Src/joint_config.c **** 	}
 166              		.loc 1 71 3 is_stmt 1 view .LVU51
  71:Core/Src/joint_config.c **** 	}
 167              		.loc 1 71 20 is_stmt 0 view .LVU52
 168 0058 0523     		movs	r3, #5
 169 005a 6370     		strb	r3, [r4, #1]
 170 005c DAE7     		b	.L2
 171              	.L8:
  73:Core/Src/joint_config.c **** 	{
 172              		.loc 1 73 7 is_stmt 1 view .LVU53
  73:Core/Src/joint_config.c **** 	{
 173              		.loc 1 73 11 is_stmt 0 view .LVU54
 174 005e 4FF40041 		mov	r1, #32768
 175 0062 0548     		ldr	r0, .L11
 176 0064 FFF7FEFF 		bl	HAL_GPIO_ReadPin
 177              	.LVL9:
  73:Core/Src/joint_config.c **** 	{
 178              		.loc 1 73 10 view .LVU55
 179 0068 10B1     		cbz	r0, .L9
  75:Core/Src/joint_config.c **** 	}
 180              		.loc 1 75 3 is_stmt 1 view .LVU56
  75:Core/Src/joint_config.c **** 	}
 181              		.loc 1 75 20 is_stmt 0 view .LVU57
 182 006a 0623     		movs	r3, #6
ARM GAS  C:\Users\SOROKO~1\AppData\Local\Temp\ccjtlBYc.s 			page 6


 183 006c 6370     		strb	r3, [r4, #1]
 184 006e D1E7     		b	.L2
 185              	.L9:
  79:Core/Src/joint_config.c **** 	}
 186              		.loc 1 79 3 is_stmt 1 view .LVU58
  79:Core/Src/joint_config.c **** 	}
 187              		.loc 1 79 20 is_stmt 0 view .LVU59
 188 0070 0023     		movs	r3, #0
 189 0072 6370     		strb	r3, [r4, #1]
 190              		.loc 1 81 1 view .LVU60
 191 0074 CEE7     		b	.L2
 192              	.L12:
 193 0076 00BF     		.align	2
 194              	.L11:
 195 0078 00040048 		.word	1207960576
 196              		.cfi_endproc
 197              	.LFE139:
 199              		.section	.text.domain_id_selector,"ax",%progbits
 200              		.align	1
 201              		.global	domain_id_selector
 202              		.syntax unified
 203              		.thumb
 204              		.thumb_func
 206              	domain_id_selector:
 207              	.LVL10:
 208              	.LFB140:
  82:Core/Src/joint_config.c **** 
  83:Core/Src/joint_config.c **** void domain_id_selector(joint_config * jc)
  84:Core/Src/joint_config.c **** {
 209              		.loc 1 84 1 is_stmt 1 view -0
 210              		.cfi_startproc
 211              		@ args = 0, pretend = 0, frame = 0
 212              		@ frame_needed = 0, uses_anonymous_args = 0
 213              		.loc 1 84 1 is_stmt 0 view .LVU62
 214 0000 10B5     		push	{r4, lr}
 215              	.LCFI1:
 216              		.cfi_def_cfa_offset 8
 217              		.cfi_offset 4, -8
 218              		.cfi_offset 14, -4
 219 0002 0446     		mov	r4, r0
  85:Core/Src/joint_config.c **** 	if(HAL_GPIO_ReadPin(DIP_8_GPIO_Port, DIP_8_Pin))
 220              		.loc 1 85 2 is_stmt 1 view .LVU63
 221              		.loc 1 85 5 is_stmt 0 view .LVU64
 222 0004 4FF40071 		mov	r1, #512
 223 0008 0348     		ldr	r0, .L16
 224              	.LVL11:
 225              		.loc 1 85 5 view .LVU65
 226 000a FFF7FEFF 		bl	HAL_GPIO_ReadPin
 227              	.LVL12:
 228              		.loc 1 85 4 view .LVU66
 229 000e 08B1     		cbz	r0, .L13
  86:Core/Src/joint_config.c **** 	{
  87:Core/Src/joint_config.c **** 		jc->domain_id = 0;
 230              		.loc 1 87 3 is_stmt 1 view .LVU67
 231              		.loc 1 87 17 is_stmt 0 view .LVU68
 232 0010 0023     		movs	r3, #0
 233 0012 2370     		strb	r3, [r4]
ARM GAS  C:\Users\SOROKO~1\AppData\Local\Temp\ccjtlBYc.s 			page 7


 234              	.L13:
  88:Core/Src/joint_config.c **** 	}
  89:Core/Src/joint_config.c **** }
 235              		.loc 1 89 1 view .LVU69
 236 0014 10BD     		pop	{r4, pc}
 237              	.LVL13:
 238              	.L17:
 239              		.loc 1 89 1 view .LVU70
 240 0016 00BF     		.align	2
 241              	.L16:
 242 0018 00080048 		.word	1207961600
 243              		.cfi_endproc
 244              	.LFE140:
 246              		.section	.text.joint_config_main_part_init,"ax",%progbits
 247              		.align	1
 248              		.global	joint_config_main_part_init
 249              		.syntax unified
 250              		.thumb
 251              		.thumb_func
 253              	joint_config_main_part_init:
 254              	.LVL14:
 255              	.LFB136:
  14:Core/Src/joint_config.c **** 	  joint_number_selector(jconf);
 256              		.loc 1 14 1 is_stmt 1 view -0
 257              		.cfi_startproc
 258              		@ args = 0, pretend = 0, frame = 0
 259              		@ frame_needed = 0, uses_anonymous_args = 0
  14:Core/Src/joint_config.c **** 	  joint_number_selector(jconf);
 260              		.loc 1 14 1 is_stmt 0 view .LVU72
 261 0000 10B5     		push	{r4, lr}
 262              	.LCFI2:
 263              		.cfi_def_cfa_offset 8
 264              		.cfi_offset 4, -8
 265              		.cfi_offset 14, -4
 266 0002 0446     		mov	r4, r0
  15:Core/Src/joint_config.c **** 	  domain_id_selector(jconf);
 267              		.loc 1 15 4 is_stmt 1 view .LVU73
 268 0004 FFF7FEFF 		bl	joint_number_selector
 269              	.LVL15:
  16:Core/Src/joint_config.c **** }
 270              		.loc 1 16 4 view .LVU74
 271 0008 2046     		mov	r0, r4
 272 000a FFF7FEFF 		bl	domain_id_selector
 273              	.LVL16:
  17:Core/Src/joint_config.c **** 
 274              		.loc 1 17 1 is_stmt 0 view .LVU75
 275 000e 10BD     		pop	{r4, pc}
  17:Core/Src/joint_config.c **** 
 276              		.loc 1 17 1 view .LVU76
 277              		.cfi_endproc
 278              	.LFE136:
 280              		.section	.text.joint_config_write,"ax",%progbits
 281              		.align	1
 282              		.global	joint_config_write
 283              		.syntax unified
 284              		.thumb
 285              		.thumb_func
ARM GAS  C:\Users\SOROKO~1\AppData\Local\Temp\ccjtlBYc.s 			page 8


 287              	joint_config_write:
 288              	.LVL17:
 289              	.LFB141:
  90:Core/Src/joint_config.c **** 
  91:Core/Src/joint_config.c **** void joint_config_write(joint_config * jc)
  92:Core/Src/joint_config.c **** {
 290              		.loc 1 92 1 is_stmt 1 view -0
 291              		.cfi_startproc
 292              		@ args = 0, pretend = 0, frame = 0
 293              		@ frame_needed = 0, uses_anonymous_args = 0
 294              		.loc 1 92 1 is_stmt 0 view .LVU78
 295 0000 38B5     		push	{r3, r4, r5, lr}
 296              	.LCFI3:
 297              		.cfi_def_cfa_offset 16
 298              		.cfi_offset 3, -16
 299              		.cfi_offset 4, -12
 300              		.cfi_offset 5, -8
 301              		.cfi_offset 14, -4
 302 0002 0446     		mov	r4, r0
  93:Core/Src/joint_config.c **** 	uint16_t address_of_domain_id = 0x00;
 303              		.loc 1 93 2 is_stmt 1 view .LVU79
 304              	.LVL18:
  94:Core/Src/joint_config.c **** 	uint16_t address_of_upper_limit_enc = sizeof(&jc->domain_id);
 305              		.loc 1 94 2 view .LVU80
  95:Core/Src/joint_config.c **** 	uint16_t address_of_lower_limit_enc = address_of_upper_limit_enc + sizeof(&jc->upper_limit_enc);
 306              		.loc 1 95 2 view .LVU81
  96:Core/Src/joint_config.c **** 	uint16_t address_of_upper_limit_ticks = address_of_lower_limit_enc + sizeof(&jc->lower_limit_enc);
 307              		.loc 1 96 2 view .LVU82
  97:Core/Src/joint_config.c **** 	uint16_t address_of_lower_limit_ticks = address_of_upper_limit_ticks + sizeof(&jc->upper_limit_tic
 308              		.loc 1 97 2 view .LVU83
  98:Core/Src/joint_config.c **** 	uint16_t address_of_zero_enc = address_of_lower_limit_ticks + sizeof(&jc->lower_limit_ticks);
 309              		.loc 1 98 2 view .LVU84
  99:Core/Src/joint_config.c **** 	uint16_t address_of_joint_number = address_of_zero_enc + sizeof(&jc->zero_enc);
 310              		.loc 1 99 2 view .LVU85
 100:Core/Src/joint_config.c **** 	uint16_t address_of_motor_type = address_of_joint_number + sizeof(&jc->joint_number);
 311              		.loc 1 100 2 view .LVU86
 101:Core/Src/joint_config.c **** 	uint16_t address_of_full_steps = address_of_motor_type + sizeof(&jc->motor_type);
 312              		.loc 1 101 2 view .LVU87
 102:Core/Src/joint_config.c **** 	uint16_t address_of_gear_ratio = address_of_full_steps + sizeof(&jc->full_steps);
 313              		.loc 1 102 2 view .LVU88
 103:Core/Src/joint_config.c **** 	uint16_t address_of_upper_limit_effort = address_of_gear_ratio + sizeof(&jc->gear_ratio);
 314              		.loc 1 103 2 view .LVU89
 104:Core/Src/joint_config.c **** 	uint16_t address_of_direction = address_of_upper_limit_effort + sizeof(&jc->upper_limit_effort);
 315              		.loc 1 104 2 view .LVU90
 105:Core/Src/joint_config.c **** 
 106:Core/Src/joint_config.c **** 	int timeout = 100;
 316              		.loc 1 106 2 view .LVU91
 107:Core/Src/joint_config.c **** 	if (at24_isConnected())
 317              		.loc 1 107 2 view .LVU92
 318              		.loc 1 107 6 is_stmt 0 view .LVU93
 319 0004 FFF7FEFF 		bl	at24_isConnected
 320              	.LVL19:
 321              		.loc 1 107 5 view .LVU94
 322 0008 00B9     		cbnz	r0, .L23
 323              	.L20:
 108:Core/Src/joint_config.c **** 	{
 109:Core/Src/joint_config.c **** 
ARM GAS  C:\Users\SOROKO~1\AppData\Local\Temp\ccjtlBYc.s 			page 9


 110:Core/Src/joint_config.c **** 		at24_write(address_of_domain_id, &jc->domain_id, sizeof(&jc->domain_id), timeout);
 111:Core/Src/joint_config.c **** 		vTaskDelay(1/ portTICK_PERIOD_MS);
 112:Core/Src/joint_config.c **** 		at24_write(address_of_upper_limit_enc, &jc->upper_limit_enc, sizeof(&jc->upper_limit_enc), timeou
 113:Core/Src/joint_config.c **** 		vTaskDelay(1/ portTICK_PERIOD_MS);
 114:Core/Src/joint_config.c **** 		at24_write(address_of_lower_limit_enc, &jc->lower_limit_enc, sizeof(&jc->lower_limit_enc), timeou
 115:Core/Src/joint_config.c **** 		vTaskDelay(1/ portTICK_PERIOD_MS);
 116:Core/Src/joint_config.c **** 		at24_write(address_of_upper_limit_ticks, &jc->upper_limit_ticks, sizeof(&jc->upper_limit_ticks), 
 117:Core/Src/joint_config.c **** 		vTaskDelay(1/ portTICK_PERIOD_MS);
 118:Core/Src/joint_config.c **** 		at24_write(address_of_lower_limit_ticks, &jc->lower_limit_ticks, sizeof(&jc->lower_limit_ticks), 
 119:Core/Src/joint_config.c **** 		vTaskDelay(1/ portTICK_PERIOD_MS);
 120:Core/Src/joint_config.c **** 		at24_write(address_of_zero_enc, &jc->zero_enc, sizeof(&jc->zero_enc), timeout);
 121:Core/Src/joint_config.c **** 		vTaskDelay(1/ portTICK_PERIOD_MS);
 122:Core/Src/joint_config.c **** 		at24_write(address_of_joint_number, &jc->joint_number, sizeof(&jc->joint_number), timeout);
 123:Core/Src/joint_config.c **** 		vTaskDelay(1/ portTICK_PERIOD_MS);
 124:Core/Src/joint_config.c **** 		at24_write(address_of_motor_type, &jc->motor_type, sizeof(&jc->motor_type), timeout);
 125:Core/Src/joint_config.c **** 		vTaskDelay(1/ portTICK_PERIOD_MS);
 126:Core/Src/joint_config.c **** 		at24_write(address_of_full_steps, &jc->full_steps, sizeof(&jc->full_steps), timeout);
 127:Core/Src/joint_config.c **** 		vTaskDelay(1/ portTICK_PERIOD_MS);
 128:Core/Src/joint_config.c **** 		at24_write(address_of_gear_ratio, &jc->gear_ratio, sizeof(&jc->gear_ratio), timeout);
 129:Core/Src/joint_config.c **** 		vTaskDelay(1/ portTICK_PERIOD_MS);
 130:Core/Src/joint_config.c **** 		at24_write(address_of_upper_limit_effort, &jc->upper_limit_effort, sizeof(&jc->upper_limit_effort
 131:Core/Src/joint_config.c **** 		vTaskDelay(1/ portTICK_PERIOD_MS);
 132:Core/Src/joint_config.c **** 		at24_write(address_of_direction, &jc->direction, sizeof(&jc->direction), timeout);
 133:Core/Src/joint_config.c **** 		vTaskDelay(1/ portTICK_PERIOD_MS);
 134:Core/Src/joint_config.c **** 
 135:Core/Src/joint_config.c **** 	}
 136:Core/Src/joint_config.c **** }
 324              		.loc 1 136 1 view .LVU95
 325 000a 38BD     		pop	{r3, r4, r5, pc}
 326              	.LVL20:
 327              	.L23:
 110:Core/Src/joint_config.c **** 		vTaskDelay(1/ portTICK_PERIOD_MS);
 328              		.loc 1 110 3 is_stmt 1 view .LVU96
 329 000c 6423     		movs	r3, #100
 330 000e 0422     		movs	r2, #4
 331 0010 2146     		mov	r1, r4
 332 0012 0020     		movs	r0, #0
 333 0014 FFF7FEFF 		bl	at24_write
 334              	.LVL21:
 111:Core/Src/joint_config.c **** 		at24_write(address_of_upper_limit_enc, &jc->upper_limit_enc, sizeof(&jc->upper_limit_enc), timeou
 335              		.loc 1 111 3 view .LVU97
 336 0018 0125     		movs	r5, #1
 337 001a 0023     		movs	r3, #0
 338 001c B5FBF3F5 		udiv	r5, r5, r3
 339 0020 2846     		mov	r0, r5
 340 0022 FFF7FEFF 		bl	vTaskDelay
 341              	.LVL22:
 112:Core/Src/joint_config.c **** 		vTaskDelay(1/ portTICK_PERIOD_MS);
 342              		.loc 1 112 3 view .LVU98
 343 0026 6423     		movs	r3, #100
 344 0028 0422     		movs	r2, #4
 345 002a 04F11401 		add	r1, r4, #20
 346 002e 1046     		mov	r0, r2
 347 0030 FFF7FEFF 		bl	at24_write
 348              	.LVL23:
 113:Core/Src/joint_config.c **** 		at24_write(address_of_lower_limit_enc, &jc->lower_limit_enc, sizeof(&jc->lower_limit_enc), timeou
 349              		.loc 1 113 3 view .LVU99
ARM GAS  C:\Users\SOROKO~1\AppData\Local\Temp\ccjtlBYc.s 			page 10


 350 0034 2846     		mov	r0, r5
 351 0036 FFF7FEFF 		bl	vTaskDelay
 352              	.LVL24:
 114:Core/Src/joint_config.c **** 		vTaskDelay(1/ portTICK_PERIOD_MS);
 353              		.loc 1 114 3 view .LVU100
 354 003a 6423     		movs	r3, #100
 355 003c 0422     		movs	r2, #4
 356 003e 04F11801 		add	r1, r4, #24
 357 0042 0820     		movs	r0, #8
 358 0044 FFF7FEFF 		bl	at24_write
 359              	.LVL25:
 115:Core/Src/joint_config.c **** 		at24_write(address_of_upper_limit_ticks, &jc->upper_limit_ticks, sizeof(&jc->upper_limit_ticks), 
 360              		.loc 1 115 3 view .LVU101
 361 0048 2846     		mov	r0, r5
 362 004a FFF7FEFF 		bl	vTaskDelay
 363              	.LVL26:
 116:Core/Src/joint_config.c **** 		vTaskDelay(1/ portTICK_PERIOD_MS);
 364              		.loc 1 116 3 view .LVU102
 365 004e 6423     		movs	r3, #100
 366 0050 0422     		movs	r2, #4
 367 0052 04F10C01 		add	r1, r4, #12
 368 0056 0C20     		movs	r0, #12
 369 0058 FFF7FEFF 		bl	at24_write
 370              	.LVL27:
 117:Core/Src/joint_config.c **** 		at24_write(address_of_lower_limit_ticks, &jc->lower_limit_ticks, sizeof(&jc->lower_limit_ticks), 
 371              		.loc 1 117 3 view .LVU103
 372 005c 2846     		mov	r0, r5
 373 005e FFF7FEFF 		bl	vTaskDelay
 374              	.LVL28:
 118:Core/Src/joint_config.c **** 		vTaskDelay(1/ portTICK_PERIOD_MS);
 375              		.loc 1 118 3 view .LVU104
 376 0062 6423     		movs	r3, #100
 377 0064 0422     		movs	r2, #4
 378 0066 04F11001 		add	r1, r4, #16
 379 006a 1020     		movs	r0, #16
 380 006c FFF7FEFF 		bl	at24_write
 381              	.LVL29:
 119:Core/Src/joint_config.c **** 		at24_write(address_of_zero_enc, &jc->zero_enc, sizeof(&jc->zero_enc), timeout);
 382              		.loc 1 119 3 view .LVU105
 383 0070 2846     		mov	r0, r5
 384 0072 FFF7FEFF 		bl	vTaskDelay
 385              	.LVL30:
 120:Core/Src/joint_config.c **** 		vTaskDelay(1/ portTICK_PERIOD_MS);
 386              		.loc 1 120 3 view .LVU106
 387 0076 6423     		movs	r3, #100
 388 0078 0422     		movs	r2, #4
 389 007a 04F11C01 		add	r1, r4, #28
 390 007e 1420     		movs	r0, #20
 391 0080 FFF7FEFF 		bl	at24_write
 392              	.LVL31:
 121:Core/Src/joint_config.c **** 		at24_write(address_of_joint_number, &jc->joint_number, sizeof(&jc->joint_number), timeout);
 393              		.loc 1 121 3 view .LVU107
 394 0084 2846     		mov	r0, r5
 395 0086 FFF7FEFF 		bl	vTaskDelay
 396              	.LVL32:
 122:Core/Src/joint_config.c **** 		vTaskDelay(1/ portTICK_PERIOD_MS);
 397              		.loc 1 122 3 view .LVU108
ARM GAS  C:\Users\SOROKO~1\AppData\Local\Temp\ccjtlBYc.s 			page 11


 398 008a 6423     		movs	r3, #100
 399 008c 0422     		movs	r2, #4
 400 008e 611C     		adds	r1, r4, #1
 401 0090 1820     		movs	r0, #24
 402 0092 FFF7FEFF 		bl	at24_write
 403              	.LVL33:
 123:Core/Src/joint_config.c **** 		at24_write(address_of_motor_type, &jc->motor_type, sizeof(&jc->motor_type), timeout);
 404              		.loc 1 123 3 view .LVU109
 405 0096 2846     		mov	r0, r5
 406 0098 FFF7FEFF 		bl	vTaskDelay
 407              	.LVL34:
 124:Core/Src/joint_config.c **** 		vTaskDelay(1/ portTICK_PERIOD_MS);
 408              		.loc 1 124 3 view .LVU110
 409 009c 6423     		movs	r3, #100
 410 009e 0422     		movs	r2, #4
 411 00a0 A11C     		adds	r1, r4, #2
 412 00a2 1C20     		movs	r0, #28
 413 00a4 FFF7FEFF 		bl	at24_write
 414              	.LVL35:
 125:Core/Src/joint_config.c **** 		at24_write(address_of_full_steps, &jc->full_steps, sizeof(&jc->full_steps), timeout);
 415              		.loc 1 125 3 view .LVU111
 416 00a8 2846     		mov	r0, r5
 417 00aa FFF7FEFF 		bl	vTaskDelay
 418              	.LVL36:
 126:Core/Src/joint_config.c **** 		vTaskDelay(1/ portTICK_PERIOD_MS);
 419              		.loc 1 126 3 view .LVU112
 420 00ae 6423     		movs	r3, #100
 421 00b0 0422     		movs	r2, #4
 422 00b2 A118     		adds	r1, r4, r2
 423 00b4 2020     		movs	r0, #32
 424 00b6 FFF7FEFF 		bl	at24_write
 425              	.LVL37:
 127:Core/Src/joint_config.c **** 		at24_write(address_of_gear_ratio, &jc->gear_ratio, sizeof(&jc->gear_ratio), timeout);
 426              		.loc 1 127 3 view .LVU113
 427 00ba 2846     		mov	r0, r5
 428 00bc FFF7FEFF 		bl	vTaskDelay
 429              	.LVL38:
 128:Core/Src/joint_config.c **** 		vTaskDelay(1/ portTICK_PERIOD_MS);
 430              		.loc 1 128 3 view .LVU114
 431 00c0 6423     		movs	r3, #100
 432 00c2 0422     		movs	r2, #4
 433 00c4 04F10801 		add	r1, r4, #8
 434 00c8 2420     		movs	r0, #36
 435 00ca FFF7FEFF 		bl	at24_write
 436              	.LVL39:
 129:Core/Src/joint_config.c **** 		at24_write(address_of_upper_limit_effort, &jc->upper_limit_effort, sizeof(&jc->upper_limit_effort
 437              		.loc 1 129 3 view .LVU115
 438 00ce 2846     		mov	r0, r5
 439 00d0 FFF7FEFF 		bl	vTaskDelay
 440              	.LVL40:
 130:Core/Src/joint_config.c **** 		vTaskDelay(1/ portTICK_PERIOD_MS);
 441              		.loc 1 130 3 view .LVU116
 442 00d4 6423     		movs	r3, #100
 443 00d6 0422     		movs	r2, #4
 444 00d8 04F12001 		add	r1, r4, #32
 445 00dc 2820     		movs	r0, #40
 446 00de FFF7FEFF 		bl	at24_write
ARM GAS  C:\Users\SOROKO~1\AppData\Local\Temp\ccjtlBYc.s 			page 12


 447              	.LVL41:
 131:Core/Src/joint_config.c **** 		at24_write(address_of_direction, &jc->direction, sizeof(&jc->direction), timeout);
 448              		.loc 1 131 3 view .LVU117
 449 00e2 2846     		mov	r0, r5
 450 00e4 FFF7FEFF 		bl	vTaskDelay
 451              	.LVL42:
 132:Core/Src/joint_config.c **** 		vTaskDelay(1/ portTICK_PERIOD_MS);
 452              		.loc 1 132 3 view .LVU118
 453 00e8 6423     		movs	r3, #100
 454 00ea 0422     		movs	r2, #4
 455 00ec E11C     		adds	r1, r4, #3
 456 00ee 2C20     		movs	r0, #44
 457 00f0 FFF7FEFF 		bl	at24_write
 458              	.LVL43:
 133:Core/Src/joint_config.c **** 
 459              		.loc 1 133 3 view .LVU119
 460 00f4 2846     		mov	r0, r5
 461 00f6 FFF7FEFF 		bl	vTaskDelay
 462              	.LVL44:
 463              		.loc 1 136 1 is_stmt 0 view .LVU120
 464 00fa 86E7     		b	.L20
 465              		.cfi_endproc
 466              	.LFE141:
 468              		.section	.text.joint_config_read,"ax",%progbits
 469              		.align	1
 470              		.global	joint_config_read
 471              		.syntax unified
 472              		.thumb
 473              		.thumb_func
 475              	joint_config_read:
 476              	.LVL45:
 477              	.LFB142:
 137:Core/Src/joint_config.c **** 
 138:Core/Src/joint_config.c **** void joint_config_read(joint_config * jc)
 139:Core/Src/joint_config.c **** {
 478              		.loc 1 139 1 is_stmt 1 view -0
 479              		.cfi_startproc
 480              		@ args = 0, pretend = 0, frame = 0
 481              		@ frame_needed = 0, uses_anonymous_args = 0
 482              		.loc 1 139 1 is_stmt 0 view .LVU122
 483 0000 38B5     		push	{r3, r4, r5, lr}
 484              	.LCFI4:
 485              		.cfi_def_cfa_offset 16
 486              		.cfi_offset 3, -16
 487              		.cfi_offset 4, -12
 488              		.cfi_offset 5, -8
 489              		.cfi_offset 14, -4
 490 0002 0446     		mov	r4, r0
 140:Core/Src/joint_config.c **** 	uint16_t address_of_domain_id = 0x00;
 491              		.loc 1 140 2 is_stmt 1 view .LVU123
 492              	.LVL46:
 141:Core/Src/joint_config.c **** 	uint16_t address_of_upper_limit_enc = sizeof(&jc->domain_id);
 493              		.loc 1 141 2 view .LVU124
 142:Core/Src/joint_config.c **** 	uint16_t address_of_lower_limit_enc = address_of_upper_limit_enc + sizeof(&jc->upper_limit_enc);
 494              		.loc 1 142 2 view .LVU125
 143:Core/Src/joint_config.c **** 	uint16_t address_of_upper_limit_ticks = address_of_lower_limit_enc + sizeof(&jc->lower_limit_enc);
 495              		.loc 1 143 2 view .LVU126
ARM GAS  C:\Users\SOROKO~1\AppData\Local\Temp\ccjtlBYc.s 			page 13


 144:Core/Src/joint_config.c **** 	uint16_t address_of_lower_limit_ticks = address_of_upper_limit_ticks + sizeof(&jc->upper_limit_tic
 496              		.loc 1 144 2 view .LVU127
 145:Core/Src/joint_config.c **** 	uint16_t address_of_zero_enc = address_of_lower_limit_ticks + sizeof(&jc->lower_limit_ticks);
 497              		.loc 1 145 2 view .LVU128
 146:Core/Src/joint_config.c **** 	uint16_t address_of_joint_number = address_of_zero_enc + sizeof(&jc->zero_enc);
 498              		.loc 1 146 2 view .LVU129
 147:Core/Src/joint_config.c **** 	uint16_t address_of_motor_type = address_of_joint_number + sizeof(&jc->joint_number);
 499              		.loc 1 147 2 view .LVU130
 148:Core/Src/joint_config.c **** 	uint16_t address_of_full_steps = address_of_motor_type + sizeof(&jc->motor_type);
 500              		.loc 1 148 2 view .LVU131
 149:Core/Src/joint_config.c **** 	uint16_t address_of_gear_ratio = address_of_full_steps + sizeof(&jc->full_steps);
 501              		.loc 1 149 2 view .LVU132
 150:Core/Src/joint_config.c **** 	uint16_t address_of_upper_limit_effort = address_of_gear_ratio + sizeof(&jc->gear_ratio);
 502              		.loc 1 150 2 view .LVU133
 151:Core/Src/joint_config.c **** 	uint16_t address_of_direction = address_of_upper_limit_effort + sizeof(&jc->upper_limit_effort);
 503              		.loc 1 151 2 view .LVU134
 152:Core/Src/joint_config.c **** 
 153:Core/Src/joint_config.c **** 	int timeout = 100;
 504              		.loc 1 153 2 view .LVU135
 154:Core/Src/joint_config.c **** 	if (at24_isConnected())
 505              		.loc 1 154 2 view .LVU136
 506              		.loc 1 154 6 is_stmt 0 view .LVU137
 507 0004 FFF7FEFF 		bl	at24_isConnected
 508              	.LVL47:
 509              		.loc 1 154 5 view .LVU138
 510 0008 00B9     		cbnz	r0, .L27
 511              	.L24:
 155:Core/Src/joint_config.c **** 		{
 156:Core/Src/joint_config.c **** 		at24_read(address_of_domain_id, &jc->domain_id, sizeof(&jc->domain_id), timeout);
 157:Core/Src/joint_config.c **** 		vTaskDelay(1/ portTICK_PERIOD_MS);
 158:Core/Src/joint_config.c **** 		at24_read(address_of_upper_limit_enc, &jc->upper_limit_enc, sizeof(&jc->upper_limit_enc), timeout
 159:Core/Src/joint_config.c **** 		vTaskDelay(1/ portTICK_PERIOD_MS);
 160:Core/Src/joint_config.c **** 		at24_read(address_of_lower_limit_enc, &jc->lower_limit_enc, sizeof(&jc->lower_limit_enc), timeout
 161:Core/Src/joint_config.c **** 		vTaskDelay(1/ portTICK_PERIOD_MS);
 162:Core/Src/joint_config.c **** 		at24_read(address_of_upper_limit_ticks, &jc->upper_limit_ticks, sizeof(&jc->upper_limit_ticks), t
 163:Core/Src/joint_config.c **** 		vTaskDelay(1/ portTICK_PERIOD_MS);
 164:Core/Src/joint_config.c **** 		at24_read(address_of_lower_limit_ticks, &jc->lower_limit_ticks, sizeof(&jc->lower_limit_ticks), t
 165:Core/Src/joint_config.c **** 		vTaskDelay(1/ portTICK_PERIOD_MS);
 166:Core/Src/joint_config.c **** 		at24_read(address_of_zero_enc, &jc->zero_enc, sizeof(&jc->zero_enc), timeout);
 167:Core/Src/joint_config.c **** 		vTaskDelay(1/ portTICK_PERIOD_MS);
 168:Core/Src/joint_config.c **** 		//at24_read(address_of_joint_number, &jc->joint_number, sizeof(&jc->joint_number), timeout);
 169:Core/Src/joint_config.c **** 		//vTaskDelay(1000/ portTICK_PERIOD_MS);
 170:Core/Src/joint_config.c **** 		at24_read(address_of_motor_type, &jc->motor_type, sizeof(&jc->motor_type), timeout);
 171:Core/Src/joint_config.c **** 		vTaskDelay(1/ portTICK_PERIOD_MS);
 172:Core/Src/joint_config.c **** 		at24_read(address_of_full_steps, &jc->full_steps, sizeof(&jc->full_steps), timeout);
 173:Core/Src/joint_config.c **** 		vTaskDelay(1/ portTICK_PERIOD_MS);
 174:Core/Src/joint_config.c **** 		at24_read(address_of_gear_ratio, &jc->gear_ratio, sizeof(&jc->gear_ratio), timeout);
 175:Core/Src/joint_config.c **** 		vTaskDelay(1/ portTICK_PERIOD_MS);
 176:Core/Src/joint_config.c **** 		at24_read(address_of_upper_limit_effort, &jc->upper_limit_effort, sizeof(&jc->upper_limit_effort)
 177:Core/Src/joint_config.c **** 		vTaskDelay(1/ portTICK_PERIOD_MS);
 178:Core/Src/joint_config.c **** 		at24_read(address_of_direction, &jc->direction, sizeof(&jc->direction), timeout);
 179:Core/Src/joint_config.c **** 		vTaskDelay(1/ portTICK_PERIOD_MS);
 180:Core/Src/joint_config.c **** 		}
 181:Core/Src/joint_config.c **** }
 512              		.loc 1 181 1 view .LVU139
 513 000a 38BD     		pop	{r3, r4, r5, pc}
 514              	.LVL48:
ARM GAS  C:\Users\SOROKO~1\AppData\Local\Temp\ccjtlBYc.s 			page 14


 515              	.L27:
 156:Core/Src/joint_config.c **** 		vTaskDelay(1/ portTICK_PERIOD_MS);
 516              		.loc 1 156 3 is_stmt 1 view .LVU140
 517 000c 6423     		movs	r3, #100
 518 000e 0422     		movs	r2, #4
 519 0010 2146     		mov	r1, r4
 520 0012 0020     		movs	r0, #0
 521 0014 FFF7FEFF 		bl	at24_read
 522              	.LVL49:
 157:Core/Src/joint_config.c **** 		at24_read(address_of_upper_limit_enc, &jc->upper_limit_enc, sizeof(&jc->upper_limit_enc), timeout
 523              		.loc 1 157 3 view .LVU141
 524 0018 0125     		movs	r5, #1
 525 001a 0023     		movs	r3, #0
 526 001c B5FBF3F5 		udiv	r5, r5, r3
 527 0020 2846     		mov	r0, r5
 528 0022 FFF7FEFF 		bl	vTaskDelay
 529              	.LVL50:
 158:Core/Src/joint_config.c **** 		vTaskDelay(1/ portTICK_PERIOD_MS);
 530              		.loc 1 158 3 view .LVU142
 531 0026 6423     		movs	r3, #100
 532 0028 0422     		movs	r2, #4
 533 002a 04F11401 		add	r1, r4, #20
 534 002e 1046     		mov	r0, r2
 535 0030 FFF7FEFF 		bl	at24_read
 536              	.LVL51:
 159:Core/Src/joint_config.c **** 		at24_read(address_of_lower_limit_enc, &jc->lower_limit_enc, sizeof(&jc->lower_limit_enc), timeout
 537              		.loc 1 159 3 view .LVU143
 538 0034 2846     		mov	r0, r5
 539 0036 FFF7FEFF 		bl	vTaskDelay
 540              	.LVL52:
 160:Core/Src/joint_config.c **** 		vTaskDelay(1/ portTICK_PERIOD_MS);
 541              		.loc 1 160 3 view .LVU144
 542 003a 6423     		movs	r3, #100
 543 003c 0422     		movs	r2, #4
 544 003e 04F11801 		add	r1, r4, #24
 545 0042 0820     		movs	r0, #8
 546 0044 FFF7FEFF 		bl	at24_read
 547              	.LVL53:
 161:Core/Src/joint_config.c **** 		at24_read(address_of_upper_limit_ticks, &jc->upper_limit_ticks, sizeof(&jc->upper_limit_ticks), t
 548              		.loc 1 161 3 view .LVU145
 549 0048 2846     		mov	r0, r5
 550 004a FFF7FEFF 		bl	vTaskDelay
 551              	.LVL54:
 162:Core/Src/joint_config.c **** 		vTaskDelay(1/ portTICK_PERIOD_MS);
 552              		.loc 1 162 3 view .LVU146
 553 004e 6423     		movs	r3, #100
 554 0050 0422     		movs	r2, #4
 555 0052 04F10C01 		add	r1, r4, #12
 556 0056 0C20     		movs	r0, #12
 557 0058 FFF7FEFF 		bl	at24_read
 558              	.LVL55:
 163:Core/Src/joint_config.c **** 		at24_read(address_of_lower_limit_ticks, &jc->lower_limit_ticks, sizeof(&jc->lower_limit_ticks), t
 559              		.loc 1 163 3 view .LVU147
 560 005c 2846     		mov	r0, r5
 561 005e FFF7FEFF 		bl	vTaskDelay
 562              	.LVL56:
 164:Core/Src/joint_config.c **** 		vTaskDelay(1/ portTICK_PERIOD_MS);
ARM GAS  C:\Users\SOROKO~1\AppData\Local\Temp\ccjtlBYc.s 			page 15


 563              		.loc 1 164 3 view .LVU148
 564 0062 6423     		movs	r3, #100
 565 0064 0422     		movs	r2, #4
 566 0066 04F11001 		add	r1, r4, #16
 567 006a 1020     		movs	r0, #16
 568 006c FFF7FEFF 		bl	at24_read
 569              	.LVL57:
 165:Core/Src/joint_config.c **** 		at24_read(address_of_zero_enc, &jc->zero_enc, sizeof(&jc->zero_enc), timeout);
 570              		.loc 1 165 3 view .LVU149
 571 0070 2846     		mov	r0, r5
 572 0072 FFF7FEFF 		bl	vTaskDelay
 573              	.LVL58:
 166:Core/Src/joint_config.c **** 		vTaskDelay(1/ portTICK_PERIOD_MS);
 574              		.loc 1 166 3 view .LVU150
 575 0076 6423     		movs	r3, #100
 576 0078 0422     		movs	r2, #4
 577 007a 04F11C01 		add	r1, r4, #28
 578 007e 1420     		movs	r0, #20
 579 0080 FFF7FEFF 		bl	at24_read
 580              	.LVL59:
 167:Core/Src/joint_config.c **** 		//at24_read(address_of_joint_number, &jc->joint_number, sizeof(&jc->joint_number), timeout);
 581              		.loc 1 167 3 view .LVU151
 582 0084 2846     		mov	r0, r5
 583 0086 FFF7FEFF 		bl	vTaskDelay
 584              	.LVL60:
 170:Core/Src/joint_config.c **** 		vTaskDelay(1/ portTICK_PERIOD_MS);
 585              		.loc 1 170 3 view .LVU152
 586 008a 6423     		movs	r3, #100
 587 008c 0422     		movs	r2, #4
 588 008e A11C     		adds	r1, r4, #2
 589 0090 1C20     		movs	r0, #28
 590 0092 FFF7FEFF 		bl	at24_read
 591              	.LVL61:
 171:Core/Src/joint_config.c **** 		at24_read(address_of_full_steps, &jc->full_steps, sizeof(&jc->full_steps), timeout);
 592              		.loc 1 171 3 view .LVU153
 593 0096 2846     		mov	r0, r5
 594 0098 FFF7FEFF 		bl	vTaskDelay
 595              	.LVL62:
 172:Core/Src/joint_config.c **** 		vTaskDelay(1/ portTICK_PERIOD_MS);
 596              		.loc 1 172 3 view .LVU154
 597 009c 6423     		movs	r3, #100
 598 009e 0422     		movs	r2, #4
 599 00a0 A118     		adds	r1, r4, r2
 600 00a2 2020     		movs	r0, #32
 601 00a4 FFF7FEFF 		bl	at24_read
 602              	.LVL63:
 173:Core/Src/joint_config.c **** 		at24_read(address_of_gear_ratio, &jc->gear_ratio, sizeof(&jc->gear_ratio), timeout);
 603              		.loc 1 173 3 view .LVU155
 604 00a8 2846     		mov	r0, r5
 605 00aa FFF7FEFF 		bl	vTaskDelay
 606              	.LVL64:
 174:Core/Src/joint_config.c **** 		vTaskDelay(1/ portTICK_PERIOD_MS);
 607              		.loc 1 174 3 view .LVU156
 608 00ae 6423     		movs	r3, #100
 609 00b0 0422     		movs	r2, #4
 610 00b2 04F10801 		add	r1, r4, #8
 611 00b6 2420     		movs	r0, #36
ARM GAS  C:\Users\SOROKO~1\AppData\Local\Temp\ccjtlBYc.s 			page 16


 612 00b8 FFF7FEFF 		bl	at24_read
 613              	.LVL65:
 175:Core/Src/joint_config.c **** 		at24_read(address_of_upper_limit_effort, &jc->upper_limit_effort, sizeof(&jc->upper_limit_effort)
 614              		.loc 1 175 3 view .LVU157
 615 00bc 2846     		mov	r0, r5
 616 00be FFF7FEFF 		bl	vTaskDelay
 617              	.LVL66:
 176:Core/Src/joint_config.c **** 		vTaskDelay(1/ portTICK_PERIOD_MS);
 618              		.loc 1 176 3 view .LVU158
 619 00c2 6423     		movs	r3, #100
 620 00c4 0422     		movs	r2, #4
 621 00c6 04F12001 		add	r1, r4, #32
 622 00ca 2820     		movs	r0, #40
 623 00cc FFF7FEFF 		bl	at24_read
 624              	.LVL67:
 177:Core/Src/joint_config.c **** 		at24_read(address_of_direction, &jc->direction, sizeof(&jc->direction), timeout);
 625              		.loc 1 177 3 view .LVU159
 626 00d0 2846     		mov	r0, r5
 627 00d2 FFF7FEFF 		bl	vTaskDelay
 628              	.LVL68:
 178:Core/Src/joint_config.c **** 		vTaskDelay(1/ portTICK_PERIOD_MS);
 629              		.loc 1 178 3 view .LVU160
 630 00d6 6423     		movs	r3, #100
 631 00d8 0422     		movs	r2, #4
 632 00da E11C     		adds	r1, r4, #3
 633 00dc 2C20     		movs	r0, #44
 634 00de FFF7FEFF 		bl	at24_read
 635              	.LVL69:
 179:Core/Src/joint_config.c **** 		}
 636              		.loc 1 179 3 view .LVU161
 637 00e2 2846     		mov	r0, r5
 638 00e4 FFF7FEFF 		bl	vTaskDelay
 639              	.LVL70:
 640              		.loc 1 181 1 is_stmt 0 view .LVU162
 641 00e8 8FE7     		b	.L24
 642              		.cfi_endproc
 643              	.LFE142:
 645              		.section	.text.joint_config_freertos_init,"ax",%progbits
 646              		.align	1
 647              		.global	joint_config_freertos_init
 648              		.syntax unified
 649              		.thumb
 650              		.thumb_func
 652              	joint_config_freertos_init:
 653              	.LVL71:
 654              	.LFB137:
  21:Core/Src/joint_config.c **** 	//TODO to make clear why JC not transfered from main()
 655              		.loc 1 21 1 is_stmt 1 view -0
 656              		.cfi_startproc
 657              		@ args = 0, pretend = 0, frame = 0
 658              		@ frame_needed = 0, uses_anonymous_args = 0
  21:Core/Src/joint_config.c **** 	//TODO to make clear why JC not transfered from main()
 659              		.loc 1 21 1 is_stmt 0 view .LVU164
 660 0000 10B5     		push	{r4, lr}
 661              	.LCFI5:
 662              		.cfi_def_cfa_offset 8
 663              		.cfi_offset 4, -8
ARM GAS  C:\Users\SOROKO~1\AppData\Local\Temp\ccjtlBYc.s 			page 17


 664              		.cfi_offset 14, -4
 665 0002 0446     		mov	r4, r0
  23:Core/Src/joint_config.c **** 	domain_id_selector(jconf);
 666              		.loc 1 23 2 is_stmt 1 view .LVU165
 667 0004 FFF7FEFF 		bl	joint_number_selector
 668              	.LVL72:
  24:Core/Src/joint_config.c **** 	if (&jconf->joint_number == 0)
 669              		.loc 1 24 2 view .LVU166
 670 0008 2046     		mov	r0, r4
 671 000a FFF7FEFF 		bl	domain_id_selector
 672              	.LVL73:
  25:Core/Src/joint_config.c **** 	{
 673              		.loc 1 25 2 view .LVU167
  25:Core/Src/joint_config.c **** 	{
 674              		.loc 1 25 5 is_stmt 0 view .LVU168
 675 000e B4F1FF3F 		cmp	r4, #-1
 676 0012 03D0     		beq	.L32
  31:Core/Src/joint_config.c **** }
 677              		.loc 1 31 2 is_stmt 1 view .LVU169
 678 0014 2046     		mov	r0, r4
 679 0016 FFF7FEFF 		bl	joint_config_read
 680              	.LVL74:
 681              	.L28:
  32:Core/Src/joint_config.c **** 
 682              		.loc 1 32 1 is_stmt 0 view .LVU170
 683 001a 10BD     		pop	{r4, pc}
 684              	.LVL75:
 685              	.L32:
  27:Core/Src/joint_config.c **** 		joint_config_write(jconf);
 686              		.loc 1 27 3 is_stmt 1 view .LVU171
 687 001c 2046     		mov	r0, r4
 688 001e FFF7FEFF 		bl	joint_config_assembler
 689              	.LVL76:
  28:Core/Src/joint_config.c **** 		return;
 690              		.loc 1 28 3 view .LVU172
 691 0022 2046     		mov	r0, r4
 692 0024 FFF7FEFF 		bl	joint_config_write
 693              	.LVL77:
  29:Core/Src/joint_config.c **** 	}
 694              		.loc 1 29 3 view .LVU173
 695 0028 F7E7     		b	.L28
 696              		.cfi_endproc
 697              	.LFE137:
 699              		.text
 700              	.Letext0:
 701              		.file 2 "C:\\ST\\STM32CubeIDE_1.9.0\\STM32CubeIDE\\plugins\\com.st.stm32cube.ide.mcu.externaltools
 702              		.file 3 "C:\\ST\\STM32CubeIDE_1.9.0\\STM32CubeIDE\\plugins\\com.st.stm32cube.ide.mcu.externaltools
 703              		.file 4 "Middlewares/Third_Party/FreeRTOS/Source/portable/GCC/ARM_CM4F/portmacro.h"
 704              		.file 5 "Core/Inc/joint_config.h"
 705              		.file 6 "Drivers/CMSIS/Device/ST/STM32G4xx/Include/stm32g474xx.h"
 706              		.file 7 "Drivers/STM32G4xx_HAL_Driver/Inc/stm32g4xx_hal_gpio.h"
 707              		.file 8 "Core/Inc/at24_eeprom.h"
 708              		.file 9 "Middlewares/Third_Party/FreeRTOS/Source/include/task.h"
ARM GAS  C:\Users\SOROKO~1\AppData\Local\Temp\ccjtlBYc.s 			page 18


DEFINED SYMBOLS
                            *ABS*:0000000000000000 joint_config.c
C:\Users\SOROKO~1\AppData\Local\Temp\ccjtlBYc.s:20     .text.joint_config_assembler:0000000000000000 $t
C:\Users\SOROKO~1\AppData\Local\Temp\ccjtlBYc.s:26     .text.joint_config_assembler:0000000000000000 joint_config_assembler
C:\Users\SOROKO~1\AppData\Local\Temp\ccjtlBYc.s:77     .text.joint_number_selector:0000000000000000 $t
C:\Users\SOROKO~1\AppData\Local\Temp\ccjtlBYc.s:83     .text.joint_number_selector:0000000000000000 joint_number_selector
C:\Users\SOROKO~1\AppData\Local\Temp\ccjtlBYc.s:195    .text.joint_number_selector:0000000000000078 $d
C:\Users\SOROKO~1\AppData\Local\Temp\ccjtlBYc.s:200    .text.domain_id_selector:0000000000000000 $t
C:\Users\SOROKO~1\AppData\Local\Temp\ccjtlBYc.s:206    .text.domain_id_selector:0000000000000000 domain_id_selector
C:\Users\SOROKO~1\AppData\Local\Temp\ccjtlBYc.s:242    .text.domain_id_selector:0000000000000018 $d
C:\Users\SOROKO~1\AppData\Local\Temp\ccjtlBYc.s:247    .text.joint_config_main_part_init:0000000000000000 $t
C:\Users\SOROKO~1\AppData\Local\Temp\ccjtlBYc.s:253    .text.joint_config_main_part_init:0000000000000000 joint_config_main_part_init
C:\Users\SOROKO~1\AppData\Local\Temp\ccjtlBYc.s:281    .text.joint_config_write:0000000000000000 $t
C:\Users\SOROKO~1\AppData\Local\Temp\ccjtlBYc.s:287    .text.joint_config_write:0000000000000000 joint_config_write
C:\Users\SOROKO~1\AppData\Local\Temp\ccjtlBYc.s:469    .text.joint_config_read:0000000000000000 $t
C:\Users\SOROKO~1\AppData\Local\Temp\ccjtlBYc.s:475    .text.joint_config_read:0000000000000000 joint_config_read
C:\Users\SOROKO~1\AppData\Local\Temp\ccjtlBYc.s:646    .text.joint_config_freertos_init:0000000000000000 $t
C:\Users\SOROKO~1\AppData\Local\Temp\ccjtlBYc.s:652    .text.joint_config_freertos_init:0000000000000000 joint_config_freertos_init

UNDEFINED SYMBOLS
HAL_GPIO_ReadPin
at24_isConnected
at24_write
vTaskDelay
at24_read
