ARM GAS  C:\Users\SOROKO~1\AppData\Local\Temp\ccWPFCGC.s 			page 1


   1              		.cpu cortex-m4
   2              		.arch armv7e-m
   3              		.fpu fpv4-sp-d16
   4              		.eabi_attribute 27, 1
   5              		.eabi_attribute 28, 1
   6              		.eabi_attribute 20, 1
   7              		.eabi_attribute 21, 1
   8              		.eabi_attribute 23, 3
   9              		.eabi_attribute 24, 1
  10              		.eabi_attribute 25, 1
  11              		.eabi_attribute 26, 1
  12              		.eabi_attribute 30, 1
  13              		.eabi_attribute 34, 1
  14              		.eabi_attribute 18, 4
  15              		.file	"joint_config.c"
  16              		.text
  17              	.Ltext0:
  18              		.cfi_sections	.debug_frame
  19              		.section	.text.joint_config_assembler,"ax",%progbits
  20              		.align	1
  21              		.global	joint_config_assembler
  22              		.syntax unified
  23              		.thumb
  24              		.thumb_func
  26              	joint_config_assembler:
  27              	.LVL0:
  28              	.LFB138:
  29              		.file 1 "Core/Src/joint_config.c"
   1:Core/Src/joint_config.c **** /*
   2:Core/Src/joint_config.c ****  * joint_config.c
   3:Core/Src/joint_config.c ****  *
   4:Core/Src/joint_config.c ****  *  Created on: Dec 15, 2023
   5:Core/Src/joint_config.c ****  *      Author: Sorokonog
   6:Core/Src/joint_config.c ****  */
   7:Core/Src/joint_config.c **** 
   8:Core/Src/joint_config.c **** #include "cmsis_os.h"
   9:Core/Src/joint_config.c **** #include "joint_config.h"
  10:Core/Src/joint_config.c **** #include "at24_eeprom.h"
  11:Core/Src/joint_config.c **** #include "main.h"
  12:Core/Src/joint_config.c **** 
  13:Core/Src/joint_config.c **** void joint_config_main_part_init(joint_config * jconf)
  14:Core/Src/joint_config.c **** {
  15:Core/Src/joint_config.c **** 	  joint_number_selector(jconf);
  16:Core/Src/joint_config.c **** 	  domain_id_selector(jconf);
  17:Core/Src/joint_config.c **** }
  18:Core/Src/joint_config.c **** 
  19:Core/Src/joint_config.c **** 
  20:Core/Src/joint_config.c **** void joint_config_freertos_init(joint_config * jconf)
  21:Core/Src/joint_config.c **** {
  22:Core/Src/joint_config.c **** 	//TODO to make clear why JC not transfered from main()
  23:Core/Src/joint_config.c **** 	joint_number_selector(jconf);
  24:Core/Src/joint_config.c **** 	domain_id_selector(jconf);
  25:Core/Src/joint_config.c **** 	if (&jconf->joint_number == 0)
  26:Core/Src/joint_config.c **** 	{
  27:Core/Src/joint_config.c **** 		joint_config_assembler(jconf);
  28:Core/Src/joint_config.c **** 		joint_config_write(jconf);
  29:Core/Src/joint_config.c **** 		return;
ARM GAS  C:\Users\SOROKO~1\AppData\Local\Temp\ccWPFCGC.s 			page 2


  30:Core/Src/joint_config.c **** 	}
  31:Core/Src/joint_config.c **** 	joint_config_read(jconf);
  32:Core/Src/joint_config.c **** }
  33:Core/Src/joint_config.c **** 
  34:Core/Src/joint_config.c **** void joint_config_assembler(joint_config * jconf)
  35:Core/Src/joint_config.c **** {
  30              		.loc 1 35 1 view -0
  31              		.cfi_startproc
  32              		@ args = 0, pretend = 0, frame = 0
  33              		@ frame_needed = 0, uses_anonymous_args = 0
  34              		@ link register save eliminated.
  36:Core/Src/joint_config.c **** 	jconf->domain_id = 0;
  35              		.loc 1 36 2 view .LVU1
  36              		.loc 1 36 19 is_stmt 0 view .LVU2
  37 0000 0022     		movs	r2, #0
  38 0002 0270     		strb	r2, [r0]
  37:Core/Src/joint_config.c **** 	jconf->full_steps = 0;
  39              		.loc 1 37 2 is_stmt 1 view .LVU3
  40              		.loc 1 37 20 is_stmt 0 view .LVU4
  41 0004 4260     		str	r2, [r0, #4]
  38:Core/Src/joint_config.c **** 	jconf->gear_ratio = 0.0;
  42              		.loc 1 38 2 is_stmt 1 view .LVU5
  43              		.loc 1 38 20 is_stmt 0 view .LVU6
  44 0006 0023     		movs	r3, #0
  45 0008 8360     		str	r3, [r0, #8]	@ float
  39:Core/Src/joint_config.c **** 	jconf->lower_limit_enc = 0.0;
  46              		.loc 1 39 2 is_stmt 1 view .LVU7
  47              		.loc 1 39 25 is_stmt 0 view .LVU8
  48 000a 8361     		str	r3, [r0, #24]	@ float
  40:Core/Src/joint_config.c **** 	jconf->lower_limit_ticks = 0;
  49              		.loc 1 40 2 is_stmt 1 view .LVU9
  50              		.loc 1 40 27 is_stmt 0 view .LVU10
  51 000c 0261     		str	r2, [r0, #16]
  41:Core/Src/joint_config.c **** 	jconf->motor_type = 0;
  52              		.loc 1 41 2 is_stmt 1 view .LVU11
  53              		.loc 1 41 20 is_stmt 0 view .LVU12
  54 000e 8270     		strb	r2, [r0, #2]
  42:Core/Src/joint_config.c **** 	jconf->upper_limit_enc = 0.0;
  55              		.loc 1 42 2 is_stmt 1 view .LVU13
  56              		.loc 1 42 25 is_stmt 0 view .LVU14
  57 0010 4361     		str	r3, [r0, #20]	@ float
  43:Core/Src/joint_config.c **** 	jconf->upper_limit_ticks = 0;
  58              		.loc 1 43 2 is_stmt 1 view .LVU15
  59              		.loc 1 43 27 is_stmt 0 view .LVU16
  60 0012 C260     		str	r2, [r0, #12]
  44:Core/Src/joint_config.c **** 	jconf->zero_enc = 0.0;
  61              		.loc 1 44 2 is_stmt 1 view .LVU17
  62              		.loc 1 44 18 is_stmt 0 view .LVU18
  63 0014 C361     		str	r3, [r0, #28]	@ float
  45:Core/Src/joint_config.c **** 	jconf->upper_limit_effort = 0.0;
  64              		.loc 1 45 2 is_stmt 1 view .LVU19
  65              		.loc 1 45 28 is_stmt 0 view .LVU20
  66 0016 0362     		str	r3, [r0, #32]	@ float
  46:Core/Src/joint_config.c **** 	jconf->direction = 1;
  67              		.loc 1 46 2 is_stmt 1 view .LVU21
  68              		.loc 1 46 19 is_stmt 0 view .LVU22
  69 0018 0123     		movs	r3, #1
ARM GAS  C:\Users\SOROKO~1\AppData\Local\Temp\ccWPFCGC.s 			page 3


  70 001a C370     		strb	r3, [r0, #3]
  47:Core/Src/joint_config.c **** }
  71              		.loc 1 47 1 view .LVU23
  72 001c 7047     		bx	lr
  73              		.cfi_endproc
  74              	.LFE138:
  76              		.section	.text.joint_number_selector,"ax",%progbits
  77              		.align	1
  78              		.global	joint_number_selector
  79              		.syntax unified
  80              		.thumb
  81              		.thumb_func
  83              	joint_number_selector:
  84              	.LVL1:
  85              	.LFB139:
  48:Core/Src/joint_config.c **** 
  49:Core/Src/joint_config.c **** 
  50:Core/Src/joint_config.c **** 
  51:Core/Src/joint_config.c **** void joint_number_selector(joint_config * jc)
  52:Core/Src/joint_config.c **** {
  86              		.loc 1 52 1 is_stmt 1 view -0
  87              		.cfi_startproc
  88              		@ args = 0, pretend = 0, frame = 0
  89              		@ frame_needed = 0, uses_anonymous_args = 0
  90              		.loc 1 52 1 is_stmt 0 view .LVU25
  91 0000 10B5     		push	{r4, lr}
  92              	.LCFI0:
  93              		.cfi_def_cfa_offset 8
  94              		.cfi_offset 4, -8
  95              		.cfi_offset 14, -4
  96 0002 0446     		mov	r4, r0
  53:Core/Src/joint_config.c **** 	if(HAL_GPIO_ReadPin(DIP_1_GPIO_Port, DIP_1_Pin))
  97              		.loc 1 53 2 is_stmt 1 view .LVU26
  98              		.loc 1 53 5 is_stmt 0 view .LVU27
  99 0004 4FF48061 		mov	r1, #1024
 100 0008 1B48     		ldr	r0, .L11
 101              	.LVL2:
 102              		.loc 1 53 5 view .LVU28
 103 000a FFF7FEFF 		bl	HAL_GPIO_ReadPin
 104              	.LVL3:
 105              		.loc 1 53 4 view .LVU29
 106 000e 10B1     		cbz	r0, .L3
  54:Core/Src/joint_config.c **** 	{
  55:Core/Src/joint_config.c **** 		jc->joint_number = 1;
 107              		.loc 1 55 3 is_stmt 1 view .LVU30
 108              		.loc 1 55 20 is_stmt 0 view .LVU31
 109 0010 0123     		movs	r3, #1
 110 0012 6370     		strb	r3, [r4, #1]
 111              	.L2:
  56:Core/Src/joint_config.c **** 	}
  57:Core/Src/joint_config.c **** 	else if(HAL_GPIO_ReadPin(DIP_2_GPIO_Port, DIP_2_Pin))
  58:Core/Src/joint_config.c **** 	{
  59:Core/Src/joint_config.c **** 		jc->joint_number = 2;
  60:Core/Src/joint_config.c **** 	}
  61:Core/Src/joint_config.c **** 	else if (HAL_GPIO_ReadPin(DIP_3_GPIO_Port, DIP_3_Pin))
  62:Core/Src/joint_config.c **** 	{
  63:Core/Src/joint_config.c **** 		jc->joint_number = 3;
ARM GAS  C:\Users\SOROKO~1\AppData\Local\Temp\ccWPFCGC.s 			page 4


  64:Core/Src/joint_config.c **** 	}
  65:Core/Src/joint_config.c **** 	else if (HAL_GPIO_ReadPin(DIP_4_GPIO_Port, DIP_4_Pin))
  66:Core/Src/joint_config.c **** 	{
  67:Core/Src/joint_config.c **** 		jc->joint_number = 4;
  68:Core/Src/joint_config.c **** 	}
  69:Core/Src/joint_config.c **** 	else if (HAL_GPIO_ReadPin(DIP_5_GPIO_Port, DIP_5_Pin))
  70:Core/Src/joint_config.c **** 	{
  71:Core/Src/joint_config.c **** 		jc->joint_number = 5;
  72:Core/Src/joint_config.c **** 	}
  73:Core/Src/joint_config.c **** 	else if (HAL_GPIO_ReadPin(DIP_6_GPIO_Port, DIP_6_Pin))
  74:Core/Src/joint_config.c **** 	{
  75:Core/Src/joint_config.c **** 		jc->joint_number = 6;
  76:Core/Src/joint_config.c **** 	}
  77:Core/Src/joint_config.c **** 	else
  78:Core/Src/joint_config.c **** 	{
  79:Core/Src/joint_config.c **** 		jc->joint_number = 0;
  80:Core/Src/joint_config.c **** 	}
  81:Core/Src/joint_config.c **** }
 112              		.loc 1 81 1 view .LVU32
 113 0014 10BD     		pop	{r4, pc}
 114              	.LVL4:
 115              	.L3:
  57:Core/Src/joint_config.c **** 	{
 116              		.loc 1 57 7 is_stmt 1 view .LVU33
  57:Core/Src/joint_config.c **** 	{
 117              		.loc 1 57 10 is_stmt 0 view .LVU34
 118 0016 4FF40061 		mov	r1, #2048
 119 001a 1748     		ldr	r0, .L11
 120 001c FFF7FEFF 		bl	HAL_GPIO_ReadPin
 121              	.LVL5:
  57:Core/Src/joint_config.c **** 	{
 122              		.loc 1 57 9 view .LVU35
 123 0020 10B1     		cbz	r0, .L5
  59:Core/Src/joint_config.c **** 	}
 124              		.loc 1 59 3 is_stmt 1 view .LVU36
  59:Core/Src/joint_config.c **** 	}
 125              		.loc 1 59 20 is_stmt 0 view .LVU37
 126 0022 0223     		movs	r3, #2
 127 0024 6370     		strb	r3, [r4, #1]
 128 0026 F5E7     		b	.L2
 129              	.L5:
  61:Core/Src/joint_config.c **** 	{
 130              		.loc 1 61 7 is_stmt 1 view .LVU38
  61:Core/Src/joint_config.c **** 	{
 131              		.loc 1 61 11 is_stmt 0 view .LVU39
 132 0028 4FF48051 		mov	r1, #4096
 133 002c 1248     		ldr	r0, .L11
 134 002e FFF7FEFF 		bl	HAL_GPIO_ReadPin
 135              	.LVL6:
  61:Core/Src/joint_config.c **** 	{
 136              		.loc 1 61 10 view .LVU40
 137 0032 10B1     		cbz	r0, .L6
  63:Core/Src/joint_config.c **** 	}
 138              		.loc 1 63 3 is_stmt 1 view .LVU41
  63:Core/Src/joint_config.c **** 	}
 139              		.loc 1 63 20 is_stmt 0 view .LVU42
 140 0034 0323     		movs	r3, #3
ARM GAS  C:\Users\SOROKO~1\AppData\Local\Temp\ccWPFCGC.s 			page 5


 141 0036 6370     		strb	r3, [r4, #1]
 142 0038 ECE7     		b	.L2
 143              	.L6:
  65:Core/Src/joint_config.c **** 	{
 144              		.loc 1 65 7 is_stmt 1 view .LVU43
  65:Core/Src/joint_config.c **** 	{
 145              		.loc 1 65 11 is_stmt 0 view .LVU44
 146 003a 4FF40051 		mov	r1, #8192
 147 003e 0E48     		ldr	r0, .L11
 148 0040 FFF7FEFF 		bl	HAL_GPIO_ReadPin
 149              	.LVL7:
  65:Core/Src/joint_config.c **** 	{
 150              		.loc 1 65 10 view .LVU45
 151 0044 10B1     		cbz	r0, .L7
  67:Core/Src/joint_config.c **** 	}
 152              		.loc 1 67 3 is_stmt 1 view .LVU46
  67:Core/Src/joint_config.c **** 	}
 153              		.loc 1 67 20 is_stmt 0 view .LVU47
 154 0046 0423     		movs	r3, #4
 155 0048 6370     		strb	r3, [r4, #1]
 156 004a E3E7     		b	.L2
 157              	.L7:
  69:Core/Src/joint_config.c **** 	{
 158              		.loc 1 69 7 is_stmt 1 view .LVU48
  69:Core/Src/joint_config.c **** 	{
 159              		.loc 1 69 11 is_stmt 0 view .LVU49
 160 004c 4FF48041 		mov	r1, #16384
 161 0050 0948     		ldr	r0, .L11
 162 0052 FFF7FEFF 		bl	HAL_GPIO_ReadPin
 163              	.LVL8:
  69:Core/Src/joint_config.c **** 	{
 164              		.loc 1 69 10 view .LVU50
 165 0056 10B1     		cbz	r0, .L8
  71:Core/Src/joint_config.c **** 	}
 166              		.loc 1 71 3 is_stmt 1 view .LVU51
  71:Core/Src/joint_config.c **** 	}
 167              		.loc 1 71 20 is_stmt 0 view .LVU52
 168 0058 0523     		movs	r3, #5
 169 005a 6370     		strb	r3, [r4, #1]
 170 005c DAE7     		b	.L2
 171              	.L8:
  73:Core/Src/joint_config.c **** 	{
 172              		.loc 1 73 7 is_stmt 1 view .LVU53
  73:Core/Src/joint_config.c **** 	{
 173              		.loc 1 73 11 is_stmt 0 view .LVU54
 174 005e 4FF40041 		mov	r1, #32768
 175 0062 0548     		ldr	r0, .L11
 176 0064 FFF7FEFF 		bl	HAL_GPIO_ReadPin
 177              	.LVL9:
  73:Core/Src/joint_config.c **** 	{
 178              		.loc 1 73 10 view .LVU55
 179 0068 10B1     		cbz	r0, .L9
  75:Core/Src/joint_config.c **** 	}
 180              		.loc 1 75 3 is_stmt 1 view .LVU56
  75:Core/Src/joint_config.c **** 	}
 181              		.loc 1 75 20 is_stmt 0 view .LVU57
 182 006a 0623     		movs	r3, #6
ARM GAS  C:\Users\SOROKO~1\AppData\Local\Temp\ccWPFCGC.s 			page 6


 183 006c 6370     		strb	r3, [r4, #1]
 184 006e D1E7     		b	.L2
 185              	.L9:
  79:Core/Src/joint_config.c **** 	}
 186              		.loc 1 79 3 is_stmt 1 view .LVU58
  79:Core/Src/joint_config.c **** 	}
 187              		.loc 1 79 20 is_stmt 0 view .LVU59
 188 0070 0023     		movs	r3, #0
 189 0072 6370     		strb	r3, [r4, #1]
 190              		.loc 1 81 1 view .LVU60
 191 0074 CEE7     		b	.L2
 192              	.L12:
 193 0076 00BF     		.align	2
 194              	.L11:
 195 0078 00040048 		.word	1207960576
 196              		.cfi_endproc
 197              	.LFE139:
 199              		.section	.text.domain_id_selector,"ax",%progbits
 200              		.align	1
 201              		.global	domain_id_selector
 202              		.syntax unified
 203              		.thumb
 204              		.thumb_func
 206              	domain_id_selector:
 207              	.LVL10:
 208              	.LFB140:
  82:Core/Src/joint_config.c **** 
  83:Core/Src/joint_config.c **** void domain_id_selector(joint_config * jc)
  84:Core/Src/joint_config.c **** {
 209              		.loc 1 84 1 is_stmt 1 view -0
 210              		.cfi_startproc
 211              		@ args = 0, pretend = 0, frame = 0
 212              		@ frame_needed = 0, uses_anonymous_args = 0
 213              		.loc 1 84 1 is_stmt 0 view .LVU62
 214 0000 10B5     		push	{r4, lr}
 215              	.LCFI1:
 216              		.cfi_def_cfa_offset 8
 217              		.cfi_offset 4, -8
 218              		.cfi_offset 14, -4
 219 0002 0446     		mov	r4, r0
  85:Core/Src/joint_config.c **** 	if(HAL_GPIO_ReadPin(DIP_8_GPIO_Port, DIP_8_Pin))
 220              		.loc 1 85 2 is_stmt 1 view .LVU63
 221              		.loc 1 85 5 is_stmt 0 view .LVU64
 222 0004 4FF40071 		mov	r1, #512
 223 0008 0348     		ldr	r0, .L16
 224              	.LVL11:
 225              		.loc 1 85 5 view .LVU65
 226 000a FFF7FEFF 		bl	HAL_GPIO_ReadPin
 227              	.LVL12:
 228              		.loc 1 85 4 view .LVU66
 229 000e 08B1     		cbz	r0, .L13
  86:Core/Src/joint_config.c **** 	{
  87:Core/Src/joint_config.c **** 		jc->domain_id = 0;
 230              		.loc 1 87 3 is_stmt 1 view .LVU67
 231              		.loc 1 87 17 is_stmt 0 view .LVU68
 232 0010 0023     		movs	r3, #0
 233 0012 2370     		strb	r3, [r4]
ARM GAS  C:\Users\SOROKO~1\AppData\Local\Temp\ccWPFCGC.s 			page 7


 234              	.L13:
  88:Core/Src/joint_config.c **** 	}
  89:Core/Src/joint_config.c **** }
 235              		.loc 1 89 1 view .LVU69
 236 0014 10BD     		pop	{r4, pc}
 237              	.LVL13:
 238              	.L17:
 239              		.loc 1 89 1 view .LVU70
 240 0016 00BF     		.align	2
 241              	.L16:
 242 0018 00080048 		.word	1207961600
 243              		.cfi_endproc
 244              	.LFE140:
 246              		.section	.text.joint_config_main_part_init,"ax",%progbits
 247              		.align	1
 248              		.global	joint_config_main_part_init
 249              		.syntax unified
 250              		.thumb
 251              		.thumb_func
 253              	joint_config_main_part_init:
 254              	.LVL14:
 255              	.LFB136:
  14:Core/Src/joint_config.c **** 	  joint_number_selector(jconf);
 256              		.loc 1 14 1 is_stmt 1 view -0
 257              		.cfi_startproc
 258              		@ args = 0, pretend = 0, frame = 0
 259              		@ frame_needed = 0, uses_anonymous_args = 0
  14:Core/Src/joint_config.c **** 	  joint_number_selector(jconf);
 260              		.loc 1 14 1 is_stmt 0 view .LVU72
 261 0000 10B5     		push	{r4, lr}
 262              	.LCFI2:
 263              		.cfi_def_cfa_offset 8
 264              		.cfi_offset 4, -8
 265              		.cfi_offset 14, -4
 266 0002 0446     		mov	r4, r0
  15:Core/Src/joint_config.c **** 	  domain_id_selector(jconf);
 267              		.loc 1 15 4 is_stmt 1 view .LVU73
 268 0004 FFF7FEFF 		bl	joint_number_selector
 269              	.LVL15:
  16:Core/Src/joint_config.c **** }
 270              		.loc 1 16 4 view .LVU74
 271 0008 2046     		mov	r0, r4
 272 000a FFF7FEFF 		bl	domain_id_selector
 273              	.LVL16:
  17:Core/Src/joint_config.c **** 
 274              		.loc 1 17 1 is_stmt 0 view .LVU75
 275 000e 10BD     		pop	{r4, pc}
  17:Core/Src/joint_config.c **** 
 276              		.loc 1 17 1 view .LVU76
 277              		.cfi_endproc
 278              	.LFE136:
 280              		.section	.text.joint_config_write,"ax",%progbits
 281              		.align	1
 282              		.global	joint_config_write
 283              		.syntax unified
 284              		.thumb
 285              		.thumb_func
ARM GAS  C:\Users\SOROKO~1\AppData\Local\Temp\ccWPFCGC.s 			page 8


 287              	joint_config_write:
 288              	.LVL17:
 289              	.LFB141:
  90:Core/Src/joint_config.c **** 
  91:Core/Src/joint_config.c **** void joint_config_write(joint_config * jc)
  92:Core/Src/joint_config.c **** {
 290              		.loc 1 92 1 is_stmt 1 view -0
 291              		.cfi_startproc
 292              		@ args = 0, pretend = 0, frame = 0
 293              		@ frame_needed = 0, uses_anonymous_args = 0
 294              		.loc 1 92 1 is_stmt 0 view .LVU78
 295 0000 10B5     		push	{r4, lr}
 296              	.LCFI3:
 297              		.cfi_def_cfa_offset 8
 298              		.cfi_offset 4, -8
 299              		.cfi_offset 14, -4
 300 0002 0446     		mov	r4, r0
  93:Core/Src/joint_config.c **** 	uint16_t address_of_domain_id = 0x00;
 301              		.loc 1 93 2 is_stmt 1 view .LVU79
 302              	.LVL18:
  94:Core/Src/joint_config.c **** 	uint16_t address_of_upper_limit_enc = sizeof(&jc->domain_id);
 303              		.loc 1 94 2 view .LVU80
  95:Core/Src/joint_config.c **** 	uint16_t address_of_lower_limit_enc = address_of_upper_limit_enc + sizeof(&jc->upper_limit_enc);
 304              		.loc 1 95 2 view .LVU81
  96:Core/Src/joint_config.c **** 	uint16_t address_of_upper_limit_ticks = address_of_lower_limit_enc + sizeof(&jc->lower_limit_enc);
 305              		.loc 1 96 2 view .LVU82
  97:Core/Src/joint_config.c **** 	uint16_t address_of_lower_limit_ticks = address_of_upper_limit_ticks + sizeof(&jc->upper_limit_tic
 306              		.loc 1 97 2 view .LVU83
  98:Core/Src/joint_config.c **** 	uint16_t address_of_zero_enc = address_of_lower_limit_ticks + sizeof(&jc->lower_limit_ticks);
 307              		.loc 1 98 2 view .LVU84
  99:Core/Src/joint_config.c **** 	uint16_t address_of_joint_number = address_of_zero_enc + sizeof(&jc->zero_enc);
 308              		.loc 1 99 2 view .LVU85
 100:Core/Src/joint_config.c **** 	uint16_t address_of_motor_type = address_of_joint_number + sizeof(&jc->joint_number);
 309              		.loc 1 100 2 view .LVU86
 101:Core/Src/joint_config.c **** 	uint16_t address_of_full_steps = address_of_motor_type + sizeof(&jc->motor_type);
 310              		.loc 1 101 2 view .LVU87
 102:Core/Src/joint_config.c **** 	uint16_t address_of_gear_ratio = address_of_full_steps + sizeof(&jc->full_steps);
 311              		.loc 1 102 2 view .LVU88
 103:Core/Src/joint_config.c **** 	uint16_t address_of_upper_limit_effort = address_of_gear_ratio + sizeof(&jc->gear_ratio);
 312              		.loc 1 103 2 view .LVU89
 104:Core/Src/joint_config.c **** 	uint16_t address_of_direction = address_of_upper_limit_effort + sizeof(&jc->upper_limit_effort);
 313              		.loc 1 104 2 view .LVU90
 105:Core/Src/joint_config.c **** 
 106:Core/Src/joint_config.c **** 	int timeout = 100;
 314              		.loc 1 106 2 view .LVU91
 107:Core/Src/joint_config.c **** 	if (at24_isConnected())
 315              		.loc 1 107 2 view .LVU92
 316              		.loc 1 107 6 is_stmt 0 view .LVU93
 317 0004 FFF7FEFF 		bl	at24_isConnected
 318              	.LVL19:
 319              		.loc 1 107 5 view .LVU94
 320 0008 00B9     		cbnz	r0, .L23
 321              	.L20:
 108:Core/Src/joint_config.c **** 	{
 109:Core/Src/joint_config.c **** 
 110:Core/Src/joint_config.c **** 		at24_write(address_of_domain_id, &jc->domain_id, sizeof(&jc->domain_id), timeout);
 111:Core/Src/joint_config.c **** 		vTaskDelay(1/ portTICK_PERIOD_MS);
ARM GAS  C:\Users\SOROKO~1\AppData\Local\Temp\ccWPFCGC.s 			page 9


 112:Core/Src/joint_config.c **** 		at24_write(address_of_upper_limit_enc, &jc->upper_limit_enc, sizeof(&jc->upper_limit_enc), timeou
 113:Core/Src/joint_config.c **** 		vTaskDelay(1/ portTICK_PERIOD_MS);
 114:Core/Src/joint_config.c **** 		at24_write(address_of_lower_limit_enc, &jc->lower_limit_enc, sizeof(&jc->lower_limit_enc), timeou
 115:Core/Src/joint_config.c **** 		vTaskDelay(1/ portTICK_PERIOD_MS);
 116:Core/Src/joint_config.c **** 		at24_write(address_of_upper_limit_ticks, &jc->upper_limit_ticks, sizeof(&jc->upper_limit_ticks), 
 117:Core/Src/joint_config.c **** 		vTaskDelay(1/ portTICK_PERIOD_MS);
 118:Core/Src/joint_config.c **** 		at24_write(address_of_lower_limit_ticks, &jc->lower_limit_ticks, sizeof(&jc->lower_limit_ticks), 
 119:Core/Src/joint_config.c **** 		vTaskDelay(1/ portTICK_PERIOD_MS);
 120:Core/Src/joint_config.c **** 		at24_write(address_of_zero_enc, &jc->zero_enc, sizeof(&jc->zero_enc), timeout);
 121:Core/Src/joint_config.c **** 		vTaskDelay(1/ portTICK_PERIOD_MS);
 122:Core/Src/joint_config.c **** 		at24_write(address_of_joint_number, &jc->joint_number, sizeof(&jc->joint_number), timeout);
 123:Core/Src/joint_config.c **** 		vTaskDelay(1/ portTICK_PERIOD_MS);
 124:Core/Src/joint_config.c **** 		at24_write(address_of_motor_type, &jc->motor_type, sizeof(&jc->motor_type), timeout);
 125:Core/Src/joint_config.c **** 		vTaskDelay(1/ portTICK_PERIOD_MS);
 126:Core/Src/joint_config.c **** 		at24_write(address_of_full_steps, &jc->full_steps, sizeof(&jc->full_steps), timeout);
 127:Core/Src/joint_config.c **** 		vTaskDelay(1/ portTICK_PERIOD_MS);
 128:Core/Src/joint_config.c **** 		at24_write(address_of_gear_ratio, &jc->gear_ratio, sizeof(&jc->gear_ratio), timeout);
 129:Core/Src/joint_config.c **** 		vTaskDelay(1/ portTICK_PERIOD_MS);
 130:Core/Src/joint_config.c **** 		at24_write(address_of_upper_limit_effort, &jc->upper_limit_effort, sizeof(&jc->upper_limit_effort
 131:Core/Src/joint_config.c **** 		vTaskDelay(1/ portTICK_PERIOD_MS);
 132:Core/Src/joint_config.c **** 		at24_write(address_of_direction, &jc->direction, sizeof(&jc->direction), timeout);
 133:Core/Src/joint_config.c **** 		vTaskDelay(1/ portTICK_PERIOD_MS);
 134:Core/Src/joint_config.c **** 
 135:Core/Src/joint_config.c **** 	}
 136:Core/Src/joint_config.c **** }
 322              		.loc 1 136 1 view .LVU95
 323 000a 10BD     		pop	{r4, pc}
 324              	.LVL20:
 325              	.L23:
 110:Core/Src/joint_config.c **** 		vTaskDelay(1/ portTICK_PERIOD_MS);
 326              		.loc 1 110 3 is_stmt 1 view .LVU96
 327 000c 6423     		movs	r3, #100
 328 000e 0422     		movs	r2, #4
 329 0010 2146     		mov	r1, r4
 330 0012 0020     		movs	r0, #0
 331 0014 FFF7FEFF 		bl	at24_write
 332              	.LVL21:
 111:Core/Src/joint_config.c **** 		at24_write(address_of_upper_limit_enc, &jc->upper_limit_enc, sizeof(&jc->upper_limit_enc), timeou
 333              		.loc 1 111 3 view .LVU97
 334 0018 0120     		movs	r0, #1
 335 001a FFF7FEFF 		bl	vTaskDelay
 336              	.LVL22:
 112:Core/Src/joint_config.c **** 		vTaskDelay(1/ portTICK_PERIOD_MS);
 337              		.loc 1 112 3 view .LVU98
 338 001e 6423     		movs	r3, #100
 339 0020 0422     		movs	r2, #4
 340 0022 04F11401 		add	r1, r4, #20
 341 0026 1046     		mov	r0, r2
 342 0028 FFF7FEFF 		bl	at24_write
 343              	.LVL23:
 113:Core/Src/joint_config.c **** 		at24_write(address_of_lower_limit_enc, &jc->lower_limit_enc, sizeof(&jc->lower_limit_enc), timeou
 344              		.loc 1 113 3 view .LVU99
 345 002c 0120     		movs	r0, #1
 346 002e FFF7FEFF 		bl	vTaskDelay
 347              	.LVL24:
 114:Core/Src/joint_config.c **** 		vTaskDelay(1/ portTICK_PERIOD_MS);
 348              		.loc 1 114 3 view .LVU100
ARM GAS  C:\Users\SOROKO~1\AppData\Local\Temp\ccWPFCGC.s 			page 10


 349 0032 6423     		movs	r3, #100
 350 0034 0422     		movs	r2, #4
 351 0036 04F11801 		add	r1, r4, #24
 352 003a 0820     		movs	r0, #8
 353 003c FFF7FEFF 		bl	at24_write
 354              	.LVL25:
 115:Core/Src/joint_config.c **** 		at24_write(address_of_upper_limit_ticks, &jc->upper_limit_ticks, sizeof(&jc->upper_limit_ticks), 
 355              		.loc 1 115 3 view .LVU101
 356 0040 0120     		movs	r0, #1
 357 0042 FFF7FEFF 		bl	vTaskDelay
 358              	.LVL26:
 116:Core/Src/joint_config.c **** 		vTaskDelay(1/ portTICK_PERIOD_MS);
 359              		.loc 1 116 3 view .LVU102
 360 0046 6423     		movs	r3, #100
 361 0048 0422     		movs	r2, #4
 362 004a 04F10C01 		add	r1, r4, #12
 363 004e 0C20     		movs	r0, #12
 364 0050 FFF7FEFF 		bl	at24_write
 365              	.LVL27:
 117:Core/Src/joint_config.c **** 		at24_write(address_of_lower_limit_ticks, &jc->lower_limit_ticks, sizeof(&jc->lower_limit_ticks), 
 366              		.loc 1 117 3 view .LVU103
 367 0054 0120     		movs	r0, #1
 368 0056 FFF7FEFF 		bl	vTaskDelay
 369              	.LVL28:
 118:Core/Src/joint_config.c **** 		vTaskDelay(1/ portTICK_PERIOD_MS);
 370              		.loc 1 118 3 view .LVU104
 371 005a 6423     		movs	r3, #100
 372 005c 0422     		movs	r2, #4
 373 005e 04F11001 		add	r1, r4, #16
 374 0062 1020     		movs	r0, #16
 375 0064 FFF7FEFF 		bl	at24_write
 376              	.LVL29:
 119:Core/Src/joint_config.c **** 		at24_write(address_of_zero_enc, &jc->zero_enc, sizeof(&jc->zero_enc), timeout);
 377              		.loc 1 119 3 view .LVU105
 378 0068 0120     		movs	r0, #1
 379 006a FFF7FEFF 		bl	vTaskDelay
 380              	.LVL30:
 120:Core/Src/joint_config.c **** 		vTaskDelay(1/ portTICK_PERIOD_MS);
 381              		.loc 1 120 3 view .LVU106
 382 006e 6423     		movs	r3, #100
 383 0070 0422     		movs	r2, #4
 384 0072 04F11C01 		add	r1, r4, #28
 385 0076 1420     		movs	r0, #20
 386 0078 FFF7FEFF 		bl	at24_write
 387              	.LVL31:
 121:Core/Src/joint_config.c **** 		at24_write(address_of_joint_number, &jc->joint_number, sizeof(&jc->joint_number), timeout);
 388              		.loc 1 121 3 view .LVU107
 389 007c 0120     		movs	r0, #1
 390 007e FFF7FEFF 		bl	vTaskDelay
 391              	.LVL32:
 122:Core/Src/joint_config.c **** 		vTaskDelay(1/ portTICK_PERIOD_MS);
 392              		.loc 1 122 3 view .LVU108
 393 0082 6423     		movs	r3, #100
 394 0084 0422     		movs	r2, #4
 395 0086 611C     		adds	r1, r4, #1
 396 0088 1820     		movs	r0, #24
 397 008a FFF7FEFF 		bl	at24_write
ARM GAS  C:\Users\SOROKO~1\AppData\Local\Temp\ccWPFCGC.s 			page 11


 398              	.LVL33:
 123:Core/Src/joint_config.c **** 		at24_write(address_of_motor_type, &jc->motor_type, sizeof(&jc->motor_type), timeout);
 399              		.loc 1 123 3 view .LVU109
 400 008e 0120     		movs	r0, #1
 401 0090 FFF7FEFF 		bl	vTaskDelay
 402              	.LVL34:
 124:Core/Src/joint_config.c **** 		vTaskDelay(1/ portTICK_PERIOD_MS);
 403              		.loc 1 124 3 view .LVU110
 404 0094 6423     		movs	r3, #100
 405 0096 0422     		movs	r2, #4
 406 0098 A11C     		adds	r1, r4, #2
 407 009a 1C20     		movs	r0, #28
 408 009c FFF7FEFF 		bl	at24_write
 409              	.LVL35:
 125:Core/Src/joint_config.c **** 		at24_write(address_of_full_steps, &jc->full_steps, sizeof(&jc->full_steps), timeout);
 410              		.loc 1 125 3 view .LVU111
 411 00a0 0120     		movs	r0, #1
 412 00a2 FFF7FEFF 		bl	vTaskDelay
 413              	.LVL36:
 126:Core/Src/joint_config.c **** 		vTaskDelay(1/ portTICK_PERIOD_MS);
 414              		.loc 1 126 3 view .LVU112
 415 00a6 6423     		movs	r3, #100
 416 00a8 0422     		movs	r2, #4
 417 00aa A118     		adds	r1, r4, r2
 418 00ac 2020     		movs	r0, #32
 419 00ae FFF7FEFF 		bl	at24_write
 420              	.LVL37:
 127:Core/Src/joint_config.c **** 		at24_write(address_of_gear_ratio, &jc->gear_ratio, sizeof(&jc->gear_ratio), timeout);
 421              		.loc 1 127 3 view .LVU113
 422 00b2 0120     		movs	r0, #1
 423 00b4 FFF7FEFF 		bl	vTaskDelay
 424              	.LVL38:
 128:Core/Src/joint_config.c **** 		vTaskDelay(1/ portTICK_PERIOD_MS);
 425              		.loc 1 128 3 view .LVU114
 426 00b8 6423     		movs	r3, #100
 427 00ba 0422     		movs	r2, #4
 428 00bc 04F10801 		add	r1, r4, #8
 429 00c0 2420     		movs	r0, #36
 430 00c2 FFF7FEFF 		bl	at24_write
 431              	.LVL39:
 129:Core/Src/joint_config.c **** 		at24_write(address_of_upper_limit_effort, &jc->upper_limit_effort, sizeof(&jc->upper_limit_effort
 432              		.loc 1 129 3 view .LVU115
 433 00c6 0120     		movs	r0, #1
 434 00c8 FFF7FEFF 		bl	vTaskDelay
 435              	.LVL40:
 130:Core/Src/joint_config.c **** 		vTaskDelay(1/ portTICK_PERIOD_MS);
 436              		.loc 1 130 3 view .LVU116
 437 00cc 6423     		movs	r3, #100
 438 00ce 0422     		movs	r2, #4
 439 00d0 04F12001 		add	r1, r4, #32
 440 00d4 2820     		movs	r0, #40
 441 00d6 FFF7FEFF 		bl	at24_write
 442              	.LVL41:
 131:Core/Src/joint_config.c **** 		at24_write(address_of_direction, &jc->direction, sizeof(&jc->direction), timeout);
 443              		.loc 1 131 3 view .LVU117
 444 00da 0120     		movs	r0, #1
 445 00dc FFF7FEFF 		bl	vTaskDelay
ARM GAS  C:\Users\SOROKO~1\AppData\Local\Temp\ccWPFCGC.s 			page 12


 446              	.LVL42:
 132:Core/Src/joint_config.c **** 		vTaskDelay(1/ portTICK_PERIOD_MS);
 447              		.loc 1 132 3 view .LVU118
 448 00e0 6423     		movs	r3, #100
 449 00e2 0422     		movs	r2, #4
 450 00e4 E11C     		adds	r1, r4, #3
 451 00e6 2C20     		movs	r0, #44
 452 00e8 FFF7FEFF 		bl	at24_write
 453              	.LVL43:
 133:Core/Src/joint_config.c **** 
 454              		.loc 1 133 3 view .LVU119
 455 00ec 0120     		movs	r0, #1
 456 00ee FFF7FEFF 		bl	vTaskDelay
 457              	.LVL44:
 458              		.loc 1 136 1 is_stmt 0 view .LVU120
 459 00f2 8AE7     		b	.L20
 460              		.cfi_endproc
 461              	.LFE141:
 463              		.section	.text.joint_config_read,"ax",%progbits
 464              		.align	1
 465              		.global	joint_config_read
 466              		.syntax unified
 467              		.thumb
 468              		.thumb_func
 470              	joint_config_read:
 471              	.LVL45:
 472              	.LFB142:
 137:Core/Src/joint_config.c **** 
 138:Core/Src/joint_config.c **** void joint_config_read(joint_config * jc)
 139:Core/Src/joint_config.c **** {
 473              		.loc 1 139 1 is_stmt 1 view -0
 474              		.cfi_startproc
 475              		@ args = 0, pretend = 0, frame = 0
 476              		@ frame_needed = 0, uses_anonymous_args = 0
 477              		.loc 1 139 1 is_stmt 0 view .LVU122
 478 0000 10B5     		push	{r4, lr}
 479              	.LCFI4:
 480              		.cfi_def_cfa_offset 8
 481              		.cfi_offset 4, -8
 482              		.cfi_offset 14, -4
 483 0002 0446     		mov	r4, r0
 140:Core/Src/joint_config.c **** 	uint16_t address_of_domain_id = 0x00;
 484              		.loc 1 140 2 is_stmt 1 view .LVU123
 485              	.LVL46:
 141:Core/Src/joint_config.c **** 	uint16_t address_of_upper_limit_enc = sizeof(&jc->domain_id);
 486              		.loc 1 141 2 view .LVU124
 142:Core/Src/joint_config.c **** 	uint16_t address_of_lower_limit_enc = address_of_upper_limit_enc + sizeof(&jc->upper_limit_enc);
 487              		.loc 1 142 2 view .LVU125
 143:Core/Src/joint_config.c **** 	uint16_t address_of_upper_limit_ticks = address_of_lower_limit_enc + sizeof(&jc->lower_limit_enc);
 488              		.loc 1 143 2 view .LVU126
 144:Core/Src/joint_config.c **** 	uint16_t address_of_lower_limit_ticks = address_of_upper_limit_ticks + sizeof(&jc->upper_limit_tic
 489              		.loc 1 144 2 view .LVU127
 145:Core/Src/joint_config.c **** 	uint16_t address_of_zero_enc = address_of_lower_limit_ticks + sizeof(&jc->lower_limit_ticks);
 490              		.loc 1 145 2 view .LVU128
 146:Core/Src/joint_config.c **** 	uint16_t address_of_joint_number = address_of_zero_enc + sizeof(&jc->zero_enc);
 491              		.loc 1 146 2 view .LVU129
 147:Core/Src/joint_config.c **** 	uint16_t address_of_motor_type = address_of_joint_number + sizeof(&jc->joint_number);
ARM GAS  C:\Users\SOROKO~1\AppData\Local\Temp\ccWPFCGC.s 			page 13


 492              		.loc 1 147 2 view .LVU130
 148:Core/Src/joint_config.c **** 	uint16_t address_of_full_steps = address_of_motor_type + sizeof(&jc->motor_type);
 493              		.loc 1 148 2 view .LVU131
 149:Core/Src/joint_config.c **** 	uint16_t address_of_gear_ratio = address_of_full_steps + sizeof(&jc->full_steps);
 494              		.loc 1 149 2 view .LVU132
 150:Core/Src/joint_config.c **** 	uint16_t address_of_upper_limit_effort = address_of_gear_ratio + sizeof(&jc->gear_ratio);
 495              		.loc 1 150 2 view .LVU133
 151:Core/Src/joint_config.c **** 	uint16_t address_of_direction = address_of_upper_limit_effort + sizeof(&jc->upper_limit_effort);
 496              		.loc 1 151 2 view .LVU134
 152:Core/Src/joint_config.c **** 
 153:Core/Src/joint_config.c **** 	int timeout = 100;
 497              		.loc 1 153 2 view .LVU135
 154:Core/Src/joint_config.c **** 	if (at24_isConnected())
 498              		.loc 1 154 2 view .LVU136
 499              		.loc 1 154 6 is_stmt 0 view .LVU137
 500 0004 FFF7FEFF 		bl	at24_isConnected
 501              	.LVL47:
 502              		.loc 1 154 5 view .LVU138
 503 0008 00B9     		cbnz	r0, .L27
 504              	.L24:
 155:Core/Src/joint_config.c **** 		{
 156:Core/Src/joint_config.c **** 		at24_read(address_of_domain_id, &jc->domain_id, sizeof(&jc->domain_id), timeout);
 157:Core/Src/joint_config.c **** 		vTaskDelay(1/ portTICK_PERIOD_MS);
 158:Core/Src/joint_config.c **** 		at24_read(address_of_upper_limit_enc, &jc->upper_limit_enc, sizeof(&jc->upper_limit_enc), timeout
 159:Core/Src/joint_config.c **** 		vTaskDelay(1/ portTICK_PERIOD_MS);
 160:Core/Src/joint_config.c **** 		at24_read(address_of_lower_limit_enc, &jc->lower_limit_enc, sizeof(&jc->lower_limit_enc), timeout
 161:Core/Src/joint_config.c **** 		vTaskDelay(1/ portTICK_PERIOD_MS);
 162:Core/Src/joint_config.c **** 		at24_read(address_of_upper_limit_ticks, &jc->upper_limit_ticks, sizeof(&jc->upper_limit_ticks), t
 163:Core/Src/joint_config.c **** 		vTaskDelay(1/ portTICK_PERIOD_MS);
 164:Core/Src/joint_config.c **** 		at24_read(address_of_lower_limit_ticks, &jc->lower_limit_ticks, sizeof(&jc->lower_limit_ticks), t
 165:Core/Src/joint_config.c **** 		vTaskDelay(1/ portTICK_PERIOD_MS);
 166:Core/Src/joint_config.c **** 		at24_read(address_of_zero_enc, &jc->zero_enc, sizeof(&jc->zero_enc), timeout);
 167:Core/Src/joint_config.c **** 		vTaskDelay(1/ portTICK_PERIOD_MS);
 168:Core/Src/joint_config.c **** 		//at24_read(address_of_joint_number, &jc->joint_number, sizeof(&jc->joint_number), timeout);
 169:Core/Src/joint_config.c **** 		//vTaskDelay(1000/ portTICK_PERIOD_MS);
 170:Core/Src/joint_config.c **** 		at24_read(address_of_motor_type, &jc->motor_type, sizeof(&jc->motor_type), timeout);
 171:Core/Src/joint_config.c **** 		vTaskDelay(1/ portTICK_PERIOD_MS);
 172:Core/Src/joint_config.c **** 		at24_read(address_of_full_steps, &jc->full_steps, sizeof(&jc->full_steps), timeout);
 173:Core/Src/joint_config.c **** 		vTaskDelay(1/ portTICK_PERIOD_MS);
 174:Core/Src/joint_config.c **** 		at24_read(address_of_gear_ratio, &jc->gear_ratio, sizeof(&jc->gear_ratio), timeout);
 175:Core/Src/joint_config.c **** 		vTaskDelay(1/ portTICK_PERIOD_MS);
 176:Core/Src/joint_config.c **** 		at24_read(address_of_upper_limit_effort, &jc->upper_limit_effort, sizeof(&jc->upper_limit_effort)
 177:Core/Src/joint_config.c **** 		vTaskDelay(1/ portTICK_PERIOD_MS);
 178:Core/Src/joint_config.c **** 		at24_read(address_of_direction, &jc->direction, sizeof(&jc->direction), timeout);
 179:Core/Src/joint_config.c **** 		vTaskDelay(1/ portTICK_PERIOD_MS);
 180:Core/Src/joint_config.c **** 		}
 181:Core/Src/joint_config.c **** }
 505              		.loc 1 181 1 view .LVU139
 506 000a 10BD     		pop	{r4, pc}
 507              	.LVL48:
 508              	.L27:
 156:Core/Src/joint_config.c **** 		vTaskDelay(1/ portTICK_PERIOD_MS);
 509              		.loc 1 156 3 is_stmt 1 view .LVU140
 510 000c 6423     		movs	r3, #100
 511 000e 0422     		movs	r2, #4
 512 0010 2146     		mov	r1, r4
 513 0012 0020     		movs	r0, #0
ARM GAS  C:\Users\SOROKO~1\AppData\Local\Temp\ccWPFCGC.s 			page 14


 514 0014 FFF7FEFF 		bl	at24_read
 515              	.LVL49:
 157:Core/Src/joint_config.c **** 		at24_read(address_of_upper_limit_enc, &jc->upper_limit_enc, sizeof(&jc->upper_limit_enc), timeout
 516              		.loc 1 157 3 view .LVU141
 517 0018 0120     		movs	r0, #1
 518 001a FFF7FEFF 		bl	vTaskDelay
 519              	.LVL50:
 158:Core/Src/joint_config.c **** 		vTaskDelay(1/ portTICK_PERIOD_MS);
 520              		.loc 1 158 3 view .LVU142
 521 001e 6423     		movs	r3, #100
 522 0020 0422     		movs	r2, #4
 523 0022 04F11401 		add	r1, r4, #20
 524 0026 1046     		mov	r0, r2
 525 0028 FFF7FEFF 		bl	at24_read
 526              	.LVL51:
 159:Core/Src/joint_config.c **** 		at24_read(address_of_lower_limit_enc, &jc->lower_limit_enc, sizeof(&jc->lower_limit_enc), timeout
 527              		.loc 1 159 3 view .LVU143
 528 002c 0120     		movs	r0, #1
 529 002e FFF7FEFF 		bl	vTaskDelay
 530              	.LVL52:
 160:Core/Src/joint_config.c **** 		vTaskDelay(1/ portTICK_PERIOD_MS);
 531              		.loc 1 160 3 view .LVU144
 532 0032 6423     		movs	r3, #100
 533 0034 0422     		movs	r2, #4
 534 0036 04F11801 		add	r1, r4, #24
 535 003a 0820     		movs	r0, #8
 536 003c FFF7FEFF 		bl	at24_read
 537              	.LVL53:
 161:Core/Src/joint_config.c **** 		at24_read(address_of_upper_limit_ticks, &jc->upper_limit_ticks, sizeof(&jc->upper_limit_ticks), t
 538              		.loc 1 161 3 view .LVU145
 539 0040 0120     		movs	r0, #1
 540 0042 FFF7FEFF 		bl	vTaskDelay
 541              	.LVL54:
 162:Core/Src/joint_config.c **** 		vTaskDelay(1/ portTICK_PERIOD_MS);
 542              		.loc 1 162 3 view .LVU146
 543 0046 6423     		movs	r3, #100
 544 0048 0422     		movs	r2, #4
 545 004a 04F10C01 		add	r1, r4, #12
 546 004e 0C20     		movs	r0, #12
 547 0050 FFF7FEFF 		bl	at24_read
 548              	.LVL55:
 163:Core/Src/joint_config.c **** 		at24_read(address_of_lower_limit_ticks, &jc->lower_limit_ticks, sizeof(&jc->lower_limit_ticks), t
 549              		.loc 1 163 3 view .LVU147
 550 0054 0120     		movs	r0, #1
 551 0056 FFF7FEFF 		bl	vTaskDelay
 552              	.LVL56:
 164:Core/Src/joint_config.c **** 		vTaskDelay(1/ portTICK_PERIOD_MS);
 553              		.loc 1 164 3 view .LVU148
 554 005a 6423     		movs	r3, #100
 555 005c 0422     		movs	r2, #4
 556 005e 04F11001 		add	r1, r4, #16
 557 0062 1020     		movs	r0, #16
 558 0064 FFF7FEFF 		bl	at24_read
 559              	.LVL57:
 165:Core/Src/joint_config.c **** 		at24_read(address_of_zero_enc, &jc->zero_enc, sizeof(&jc->zero_enc), timeout);
 560              		.loc 1 165 3 view .LVU149
 561 0068 0120     		movs	r0, #1
ARM GAS  C:\Users\SOROKO~1\AppData\Local\Temp\ccWPFCGC.s 			page 15


 562 006a FFF7FEFF 		bl	vTaskDelay
 563              	.LVL58:
 166:Core/Src/joint_config.c **** 		vTaskDelay(1/ portTICK_PERIOD_MS);
 564              		.loc 1 166 3 view .LVU150
 565 006e 6423     		movs	r3, #100
 566 0070 0422     		movs	r2, #4
 567 0072 04F11C01 		add	r1, r4, #28
 568 0076 1420     		movs	r0, #20
 569 0078 FFF7FEFF 		bl	at24_read
 570              	.LVL59:
 167:Core/Src/joint_config.c **** 		//at24_read(address_of_joint_number, &jc->joint_number, sizeof(&jc->joint_number), timeout);
 571              		.loc 1 167 3 view .LVU151
 572 007c 0120     		movs	r0, #1
 573 007e FFF7FEFF 		bl	vTaskDelay
 574              	.LVL60:
 170:Core/Src/joint_config.c **** 		vTaskDelay(1/ portTICK_PERIOD_MS);
 575              		.loc 1 170 3 view .LVU152
 576 0082 6423     		movs	r3, #100
 577 0084 0422     		movs	r2, #4
 578 0086 A11C     		adds	r1, r4, #2
 579 0088 1C20     		movs	r0, #28
 580 008a FFF7FEFF 		bl	at24_read
 581              	.LVL61:
 171:Core/Src/joint_config.c **** 		at24_read(address_of_full_steps, &jc->full_steps, sizeof(&jc->full_steps), timeout);
 582              		.loc 1 171 3 view .LVU153
 583 008e 0120     		movs	r0, #1
 584 0090 FFF7FEFF 		bl	vTaskDelay
 585              	.LVL62:
 172:Core/Src/joint_config.c **** 		vTaskDelay(1/ portTICK_PERIOD_MS);
 586              		.loc 1 172 3 view .LVU154
 587 0094 6423     		movs	r3, #100
 588 0096 0422     		movs	r2, #4
 589 0098 A118     		adds	r1, r4, r2
 590 009a 2020     		movs	r0, #32
 591 009c FFF7FEFF 		bl	at24_read
 592              	.LVL63:
 173:Core/Src/joint_config.c **** 		at24_read(address_of_gear_ratio, &jc->gear_ratio, sizeof(&jc->gear_ratio), timeout);
 593              		.loc 1 173 3 view .LVU155
 594 00a0 0120     		movs	r0, #1
 595 00a2 FFF7FEFF 		bl	vTaskDelay
 596              	.LVL64:
 174:Core/Src/joint_config.c **** 		vTaskDelay(1/ portTICK_PERIOD_MS);
 597              		.loc 1 174 3 view .LVU156
 598 00a6 6423     		movs	r3, #100
 599 00a8 0422     		movs	r2, #4
 600 00aa 04F10801 		add	r1, r4, #8
 601 00ae 2420     		movs	r0, #36
 602 00b0 FFF7FEFF 		bl	at24_read
 603              	.LVL65:
 175:Core/Src/joint_config.c **** 		at24_read(address_of_upper_limit_effort, &jc->upper_limit_effort, sizeof(&jc->upper_limit_effort)
 604              		.loc 1 175 3 view .LVU157
 605 00b4 0120     		movs	r0, #1
 606 00b6 FFF7FEFF 		bl	vTaskDelay
 607              	.LVL66:
 176:Core/Src/joint_config.c **** 		vTaskDelay(1/ portTICK_PERIOD_MS);
 608              		.loc 1 176 3 view .LVU158
 609 00ba 6423     		movs	r3, #100
ARM GAS  C:\Users\SOROKO~1\AppData\Local\Temp\ccWPFCGC.s 			page 16


 610 00bc 0422     		movs	r2, #4
 611 00be 04F12001 		add	r1, r4, #32
 612 00c2 2820     		movs	r0, #40
 613 00c4 FFF7FEFF 		bl	at24_read
 614              	.LVL67:
 177:Core/Src/joint_config.c **** 		at24_read(address_of_direction, &jc->direction, sizeof(&jc->direction), timeout);
 615              		.loc 1 177 3 view .LVU159
 616 00c8 0120     		movs	r0, #1
 617 00ca FFF7FEFF 		bl	vTaskDelay
 618              	.LVL68:
 178:Core/Src/joint_config.c **** 		vTaskDelay(1/ portTICK_PERIOD_MS);
 619              		.loc 1 178 3 view .LVU160
 620 00ce 6423     		movs	r3, #100
 621 00d0 0422     		movs	r2, #4
 622 00d2 E11C     		adds	r1, r4, #3
 623 00d4 2C20     		movs	r0, #44
 624 00d6 FFF7FEFF 		bl	at24_read
 625              	.LVL69:
 179:Core/Src/joint_config.c **** 		}
 626              		.loc 1 179 3 view .LVU161
 627 00da 0120     		movs	r0, #1
 628 00dc FFF7FEFF 		bl	vTaskDelay
 629              	.LVL70:
 630              		.loc 1 181 1 is_stmt 0 view .LVU162
 631 00e0 93E7     		b	.L24
 632              		.cfi_endproc
 633              	.LFE142:
 635              		.section	.text.joint_config_freertos_init,"ax",%progbits
 636              		.align	1
 637              		.global	joint_config_freertos_init
 638              		.syntax unified
 639              		.thumb
 640              		.thumb_func
 642              	joint_config_freertos_init:
 643              	.LVL71:
 644              	.LFB137:
  21:Core/Src/joint_config.c **** 	//TODO to make clear why JC not transfered from main()
 645              		.loc 1 21 1 is_stmt 1 view -0
 646              		.cfi_startproc
 647              		@ args = 0, pretend = 0, frame = 0
 648              		@ frame_needed = 0, uses_anonymous_args = 0
  21:Core/Src/joint_config.c **** 	//TODO to make clear why JC not transfered from main()
 649              		.loc 1 21 1 is_stmt 0 view .LVU164
 650 0000 10B5     		push	{r4, lr}
 651              	.LCFI5:
 652              		.cfi_def_cfa_offset 8
 653              		.cfi_offset 4, -8
 654              		.cfi_offset 14, -4
 655 0002 0446     		mov	r4, r0
  23:Core/Src/joint_config.c **** 	domain_id_selector(jconf);
 656              		.loc 1 23 2 is_stmt 1 view .LVU165
 657 0004 FFF7FEFF 		bl	joint_number_selector
 658              	.LVL72:
  24:Core/Src/joint_config.c **** 	if (&jconf->joint_number == 0)
 659              		.loc 1 24 2 view .LVU166
 660 0008 2046     		mov	r0, r4
 661 000a FFF7FEFF 		bl	domain_id_selector
ARM GAS  C:\Users\SOROKO~1\AppData\Local\Temp\ccWPFCGC.s 			page 17


 662              	.LVL73:
  25:Core/Src/joint_config.c **** 	{
 663              		.loc 1 25 2 view .LVU167
  25:Core/Src/joint_config.c **** 	{
 664              		.loc 1 25 5 is_stmt 0 view .LVU168
 665 000e B4F1FF3F 		cmp	r4, #-1
 666 0012 03D0     		beq	.L32
  31:Core/Src/joint_config.c **** }
 667              		.loc 1 31 2 is_stmt 1 view .LVU169
 668 0014 2046     		mov	r0, r4
 669 0016 FFF7FEFF 		bl	joint_config_read
 670              	.LVL74:
 671              	.L28:
  32:Core/Src/joint_config.c **** 
 672              		.loc 1 32 1 is_stmt 0 view .LVU170
 673 001a 10BD     		pop	{r4, pc}
 674              	.LVL75:
 675              	.L32:
  27:Core/Src/joint_config.c **** 		joint_config_write(jconf);
 676              		.loc 1 27 3 is_stmt 1 view .LVU171
 677 001c 2046     		mov	r0, r4
 678 001e FFF7FEFF 		bl	joint_config_assembler
 679              	.LVL76:
  28:Core/Src/joint_config.c **** 		return;
 680              		.loc 1 28 3 view .LVU172
 681 0022 2046     		mov	r0, r4
 682 0024 FFF7FEFF 		bl	joint_config_write
 683              	.LVL77:
  29:Core/Src/joint_config.c **** 	}
 684              		.loc 1 29 3 view .LVU173
 685 0028 F7E7     		b	.L28
 686              		.cfi_endproc
 687              	.LFE137:
 689              		.text
 690              	.Letext0:
 691              		.file 2 "C:\\ST\\STM32CubeIDE_1.9.0\\STM32CubeIDE\\plugins\\com.st.stm32cube.ide.mcu.externaltools
 692              		.file 3 "C:\\ST\\STM32CubeIDE_1.9.0\\STM32CubeIDE\\plugins\\com.st.stm32cube.ide.mcu.externaltools
 693              		.file 4 "Middlewares/Third_Party/FreeRTOS/Source/portable/GCC/ARM_CM4F/portmacro.h"
 694              		.file 5 "Core/Inc/joint_config.h"
 695              		.file 6 "Drivers/CMSIS/Device/ST/STM32G4xx/Include/stm32g474xx.h"
 696              		.file 7 "Drivers/STM32G4xx_HAL_Driver/Inc/stm32g4xx_hal_gpio.h"
 697              		.file 8 "Core/Inc/at24_eeprom.h"
 698              		.file 9 "Middlewares/Third_Party/FreeRTOS/Source/include/task.h"
ARM GAS  C:\Users\SOROKO~1\AppData\Local\Temp\ccWPFCGC.s 			page 18

